 P5Engine

 Timestamp is 62de5118 (Mon Jul 25 03:15:20 2022)

 Preferred load address is 0000000180000000

 Start         Length     Name                   Class
 0001:00000000 00010000H .textbss                DATA
 0002:00000000 00010510H .text$mn                CODE
 0002:00010510 00001040H .text$mn$00             CODE
 0002:00011550 0000110fH .text$x                 CODE
 0003:00000000 00000110H .CRT$XCA                DATA
 0003:00000110 00000110H .CRT$XCZ                DATA
 0003:00000220 00000110H .CRT$XIA                DATA
 0003:00000330 00000110H .CRT$XIZ                DATA
 0003:00000440 00000110H .CRT$XPA                DATA
 0003:00000550 00000110H .CRT$XPZ                DATA
 0003:00000660 00000110H .CRT$XTA                DATA
 0003:00000770 00000110H .CRT$XTZ                DATA
 0003:00000880 00000700H .rdata                  DATA
 0003:00000f80 00000110H .rdata$CastGuardVftablesA DATA
 0003:00001090 0000010cH .rdata$CastGuardVftablesC DATA
 0003:0000119c 00000184H .rdata$zzzdbg           DATA
 0003:00001320 00000110H .rtc$IAA                DATA
 0003:00001430 00000110H .rtc$IZZ                DATA
 0003:00001540 00000110H .rtc$TAA                DATA
 0003:00001650 00000110H .rtc$TZZ                DATA
 0003:00001760 000014c0H .xdata                  DATA
 0003:00002c20 00000187H .edata                  DATA
 0004:00000000 00004e20H .data                   DATA
 0004:00004e20 00000768H .bss                    DATA
 0005:00000000 0000288cH .pdata                  DATA
 0006:00000000 00000280H .idata$5                DATA
 0006:00000280 0000003cH .idata$2                DATA
 0006:000002bc 00000014H .idata$3                DATA
 0006:000002d0 00000280H .idata$4                DATA
 0006:00000550 000004abH .idata$6                DATA
 0007:00000000 0000010fH .msvcjmc                DATA
 0008:00000000 00000151H .00cfg                  DATA
 0009:00000000 00000170H .rsrc$01                DATA
 0009:00000170 000001b6H .rsrc$02                DATA

  Address         Publics by Value              Rva+Base               Lib:Object

 0000:00000000       __guard_iat_table          0000000000000000     <absolute>
 0000:00000000       __x64_code_ranges_to_entry_points_count 0000000000000000     <absolute>
 0000:00000000       ___safe_se_handler_table   0000000000000000     <absolute>
 0000:00000000       __arm64x_redirection_metadata 0000000000000000     <absolute>
 0000:00000000       ___safe_se_handler_count   0000000000000000     <absolute>
 0000:00000000       __guard_eh_cont_count      0000000000000000     <absolute>
 0000:00000000       __arm64x_extra_rfe_table_size 0000000000000000     <absolute>
 0000:00000000       __guard_iat_count          0000000000000000     <absolute>
 0000:00000000       __guard_longjmp_count      0000000000000000     <absolute>
 0000:00000000       __dynamic_value_reloc_table 0000000000000000     <absolute>
 0000:00000000       __hybrid_code_map_count    0000000000000000     <absolute>
 0000:00000000       __hybrid_auxiliary_iat     0000000000000000     <absolute>
 0000:00000000       __guard_fids_count         0000000000000000     <absolute>
 0000:00000000       __hybrid_auxiliary_iat_copy 0000000000000000     <absolute>
 0000:00000000       __volatile_metadata        0000000000000000     <absolute>
 0000:00000000       __hybrid_code_map          0000000000000000     <absolute>
 0000:00000000       __AbsoluteZero             0000000000000000     <absolute>
 0000:00000000       __guard_longjmp_table      0000000000000000     <absolute>
 0000:00000000       __x64_code_ranges_to_entry_points 0000000000000000     <absolute>
 0000:00000000       __arm64x_native_entrypoint 0000000000000000     <absolute>
 0000:00000000       __guard_check_icall_a64n_fptr 0000000000000000     <absolute>
 0000:00000000       __guard_fids_table         0000000000000000     <absolute>
 0000:00000000       __guard_eh_cont_table      0000000000000000     <absolute>
 0000:00000000       __arm64x_extra_rfe_table   0000000000000000     <absolute>
 0000:00000000       __arm64x_redirection_metadata_count 0000000000000000     <absolute>
 0000:00000000       __enclave_config           0000000000000000     <absolute>
 0000:00000100       __guard_flags              0000000000000100     <absolute>
 0000:00000000       __ImageBase                0000000180000000     <linker-defined>
 0001:00000000       __enc$textbss$begin        0000000180001000     <linker-defined>
 0001:00010000       __enc$textbss$end          0000000180011000     <linker-defined>
 0002:00000920       ??D@YA?ATv2@@MT0@@Z        0000000180011920 f i p5engine.obj
 0002:00000970       __JustMyCode_Default       0000000180011970 f i p5engine.obj
 0002:00000980       ??D@YA?ATv3@@MT0@@Z        0000000180011980 f i p5engine.obj
 0002:000009f0       ??D@YA?ATv3@@T0@M@Z        00000001800119f0 f i p5engine.obj
 0002:00000a60       ??D@YA?ATv4@@MT0@@Z        0000000180011a60 f i p5engine.obj
 0002:00000ac0       ??G@YA?ATv2@@T0@0@Z        0000000180011ac0 f i p5engine.obj
 0002:00000b20       ??G@YA?ATv2@@T0@@Z         0000000180011b20 f i p5engine.obj
 0002:00000b80       ??G@YA?ATv3@@T0@0@Z        0000000180011b80 f i p5engine.obj
 0002:00000c00       ??H@YA?ATv2@@T0@0@Z        0000000180011c00 f i p5engine.obj
 0002:00000c60       ??H@YA?ATv3@@T0@0@Z        0000000180011c60 f i p5engine.obj
 0002:00000ce0       ??H@YA?ATv4@@T0@0@Z        0000000180011ce0 f i p5engine.obj
 0002:00000d40       ??K@YA?ATv3@@T0@M@Z        0000000180011d40 f i p5engine.obj
 0002:00000dc0       ??X@YAAEATv3@@AEAT0@M@Z    0000000180011dc0 f i p5engine.obj
 0002:00000e40       ??Y@YAAEATv2@@AEAT0@T0@@Z  0000000180011e40 f i p5engine.obj
 0002:00000e90       ??Y@YAAEATv3@@AEAT0@T0@@Z  0000000180011e90 f i p5engine.obj
 0002:00000f20       ??Z@YAAEATv3@@AEAT0@T0@@Z  0000000180011f20 f i p5engine.obj
 0002:00000fb0       ?AbsoluteValue@@YAMM@Z     0000000180011fb0 f i p5engine.obj
 0002:00001350       ?RandomNextUInt32@@YAIPEAUrandom_series@@@Z 0000000180012350 f i p5engine.obj
 0002:000014c0       ?AddFlags@@YAXPEAUsim_entity@@I@Z 00000001800124c0 f i p5engine.obj
 0002:000016f0       GetController              00000001800126f0 f i p5engine.obj
 0002:00001960       ?AddRadiusTo@@YA?AUrectangle3@@U1@Tv3@@@Z 0000000180012960 f i p5engine.obj
 0002:00001f90       ?AreInSameChunk@@YAHPEAUworld@@PEAUworld_position@@1@Z 0000000180012f90 f i p5engine.obj
 0002:00002480       ?LoadEntityReference@@YAXPEAUgame_state@@PEAUsim_region@@PEATentity_reference@@@Z 0000000180013480 f i p5engine.obj
 0002:00002580       ?BeginTemporaryMemory@@YA?AUtemporary_memory@@PEAUmemory_arena@@@Z 0000000180013580 f i p5engine.obj
 0002:000025d0       ?BilinearSample@@YA?AUbilinear_sample@@PEAUloaded_bitmap@@HH@Z 00000001800135d0 f i p5engine.obj
 0002:000027e0       ?CeilReal32ToInt32@@YAHM@Z 00000001800137e0 f i p5engine.obj
 0002:00002820       ?CenteredChunkPoint@@YA?AUworld_position@@III@Z 0000000180013820 f i p5engine.obj
 0002:00002a20       ?ChangeEntityLocationRaw@@YAXPEAUmemory_arena@@PEAUworld@@IPEAUworld_position@@2@Z 0000000180013a20 f i p5engine.obj
 0002:00002f90       ?Normalize@@YA?ATv3@@T1@@Z 0000000180013f90 f i p5engine.obj
 0002:00003020       ?CheckArena@@YAXPEAUmemory_arena@@@Z 0000000180014020 f i p5engine.obj
 0002:00003060       ?ChunkPositionFromTilePosition@@YA?AUworld_position@@PEAUworld@@HHHTv3@@@Z 0000000180014060 f i p5engine.obj
 0002:000031e0       ?PushSize_@@YAPEAXPEAUmemory_arena@@_K@Z 00000001800141e0 f i p5engine.obj
 0002:00003240       ?Clamp01@@YA?ATv2@@T1@@Z   0000000180014240 f i p5engine.obj
 0002:000032a0       ?Clamp01@@YA?ATv3@@T1@@Z   00000001800142a0 f i p5engine.obj
 0002:00003320       ?Clamp01@@YAMM@Z           0000000180014320 f i p5engine.obj
 0002:00003370       ?Clamp@@YAMMMM@Z           0000000180014370 f i p5engine.obj
 0002:000033e0       ?Clear@@YAXPEAUrender_group@@Tv4@@@Z 00000001800143e0 f i p5engine.obj
 0002:00003540       ?ClearFlags@@YAXPEAUsim_entity@@I@Z 0000000180014540 f i p5engine.obj
 0002:00003580       ?CoordinateSystem@@YAPEAUrender_entry_coordinate_system@@PEAUrender_group@@Tv2@@11Tv4@@PEAUloaded_bitmap@@3PEAUenvironment_map@@44@Z 0000000180014580 f i p5engine.obj
 0002:00003650       ?Cos@@YAMM@Z               0000000180014650 f i p5engine.obj
 0002:00003980       ?RectCenterDim@@YA?AUrectangle3@@Tv3@@0@Z 0000000180014980 f i p5engine.obj
 0002:00003a40       ?DefaultMoveSpec@@YA?AUmove_spec@@XZ 0000000180014a40 f i p5engine.obj
 0002:00003c40       ?V3@@YA?ATv3@@MMM@Z        0000000180014c40 f i p5engine.obj
 0002:00004920       ?RectCenterHalfDim@@YA?AUrectangle3@@Tv3@@0@Z 0000000180015920 f i p5engine.obj
 0002:000049f0       ?Unpack4x8@@YA?ATv4@@I@Z   00000001800159f0 f i p5engine.obj
 0002:00004cd0       ?V4@@YA?ATv4@@MMMM@Z       0000000180015cd0 f i p5engine.obj
 0002:00004d50       ?EndTemporaryMemory@@YAXUtemporary_memory@@@Z 0000000180015d50 f i p5engine.obj
 0002:00005060       ?EntityOverlapsRectangle@@YAHTv3@@Usim_entity_collision_volume@@Urectangle3@@@Z 0000000180016060 f i p5engine.obj
 0002:00005740       ?FindLeastSignificantSetBit@@YA?AUbit_scan_result@@I@Z 0000000180016740 f i p5engine.obj
 0002:000057b0       ?FloorReal32ToInt32@@YAHM@Z 00000001800167b0 f i p5engine.obj
 0002:00005840       ?GetBarycentric@@YA?ATv2@@Urectangle2@@T1@@Z 0000000180016840 f i p5engine.obj
 0002:000058c0       ?GetEntityGroundPoint@@YA?ATv3@@PEAUsim_entity@@@Z 00000001800168c0 f i p5engine.obj
 0002:00005920       ?GetEntityGroundPoint@@YA?ATv3@@PEAUsim_entity@@T1@@Z 0000000180016920 f i p5engine.obj
 0002:00005a00       ?GetLowEntity@@YAPEAUlow_entity@@PEAUgame_state@@I@Z 0000000180016a00 f i p5engine.obj
 0002:00005a70       ?GetMaxCorner@@YA?ATv3@@Urectangle3@@@Z 0000000180016a70 f i p5engine.obj
 0002:00005ac0       ?GetMinCorner@@YA?ATv3@@Urectangle3@@@Z 0000000180016ac0 f i p5engine.obj
 0002:00005b10       ?GetRenderEntityBasisPos@@YA?ATv2@@PEAUrender_group@@PEAUrender_entity_basis@@T1@@Z 0000000180016b10 f i p5engine.obj
 0002:00005c00       ?GetSimSpacePos@@YA?ATv3@@PEAUsim_region@@PEAUlow_entity@@@Z 0000000180016c00 f i p5engine.obj
 0002:00005cc0       ?GetStairGround@@YAMPEAUsim_entity@@Tv3@@@Z 0000000180016cc0 f i p5engine.obj
 0002:00005d60       ?GetWorldChunk@@YAPEAUworld_chunk@@PEAUworld@@HHHPEAUmemory_arena@@@Z 0000000180016d60 f i p5engine.obj
 0002:00005ed0       ?Hadamard@@YA?ATv3@@T1@0@Z 0000000180016ed0 f i p5engine.obj
 0002:00005f50       ?Hadamard@@YA?ATv4@@T1@0@Z 0000000180016f50 f i p5engine.obj
 0002:00006110       ?HasFlag@@YAHPEAUsim_entity@@I@Z 0000000180017110 f i p5engine.obj
 0002:000061c0       ?InitializeArena@@YAXPEAUmemory_arena@@_KPEAX@Z 00000001800171c0 f i p5engine.obj
 0002:000062a0       ?Inner@@YAMTv2@@0@Z        00000001800172a0 f i p5engine.obj
 0002:000062f0       ?Inner@@YAMTv3@@0@Z        00000001800172f0 f i p5engine.obj
 0002:00006350       ?IsCanonical@@YAHMM@Z      0000000180017350 f i p5engine.obj
 0002:000063e0       ?IsCanonical@@YAHPEAUworld@@Tv3@@@Z 00000001800173e0 f i p5engine.obj
 0002:00006470       ?IsInRectangle@@YAHUrectangle3@@Tv3@@@Z 0000000180017470 f i p5engine.obj
 0002:00006510       ?IsValid@@YAHUworld_position@@@Z 0000000180017510 f i p5engine.obj
 0002:00006540       ?Length@@YAMTv2@@@Z        0000000180017540 f i p5engine.obj
 0002:00006570       ?Length@@YAMTv3@@@Z        0000000180017570 f i p5engine.obj
 0002:000065c0       ?LengthSq@@YAMTv2@@@Z      00000001800175c0 f i p5engine.obj
 0002:000065f0       ?LengthSq@@YAMTv3@@@Z      00000001800175f0 f i p5engine.obj
 0002:00006650       ?Lerp@@YA?ATv3@@T1@M0@Z    0000000180017650 f i p5engine.obj
 0002:00006720       ?Lerp@@YA?ATv4@@T1@M0@Z    0000000180017720 f i p5engine.obj
 0002:000067d0       ?Linear1ToSRGB255@@YA?ATv4@@T1@@Z 00000001800177d0 f i p5engine.obj
 0002:00006860       ?SRGBBilinearBlend@@YA?ATv4@@Ubilinear_sample@@MM@Z 0000000180017860 f i p5engine.obj
 0002:000069f0       ?MakeEntityNonSpatial@@YAXPEAUsim_entity@@@Z 00000001800179f0 f i p5engine.obj
 0002:00006a70       ?MakeEntitySpatial@@YAXPEAUsim_entity@@Tv3@@1@Z 0000000180017a70 f i p5engine.obj
 0002:00006b90       ?UnscaleAndBiasNormal@@YA?ATv4@@T1@@Z 0000000180017b90 f i p5engine.obj
 0002:00007120       ?MapIntoChunkSpace@@YA?AUworld_position@@PEAUworld@@U1@Tv3@@@Z 0000000180018120 f i p5engine.obj
 0002:000082f0       ?PushRectOutline@@YAXPEAUrender_group@@Tv2@@M1Tv4@@M@Z 00000001800192f0 f i p5engine.obj
 0002:00008500       ?SampleEnvironmentMap@@YA?ATv3@@Tv2@@T1@MPEAUenvironment_map@@M@Z 0000000180019500 f i p5engine.obj
 0002:00008750       ?NullPosition@@YA?AUworld_position@@XZ 0000000180019750 f i p5engine.obj
 0002:00008790       ?Perp@@YA?ATv2@@T1@@Z      0000000180019790 f i p5engine.obj
 0002:00008890       ?PushBitmap@@YAXPEAUrender_group@@PEAUloaded_bitmap@@Tv2@@M2MM@Z 0000000180019890 f i p5engine.obj
 0002:00008980       ?PushEntry@@YAXPEAUrender_group@@PEAUloaded_bitmap@@Tv2@@2M2Tv4@@M@Z 0000000180019980 f i p5engine.obj
 0002:00008ab0       ?PushRect@@YAXPEAUrender_group@@Tv2@@M1Tv4@@M@Z 0000000180019ab0 f i p5engine.obj
 0002:00008dd0       ?PushRenderElement_@@YAPEAXPEAUrender_group@@IW4render_group_entry_type@@@Z 0000000180019dd0 f i p5engine.obj
 0002:00008e90       ?RandomChoice@@YAIPEAUrandom_series@@I@Z 0000000180019e90 f i p5engine.obj
 0002:00008f10       ?RandomSeed@@YA?AUrandom_series@@I@Z 0000000180019f10 f i p5engine.obj
 0002:00008f60       ?RandomUnilateral@@YAMPEAUrandom_series@@@Z 0000000180019f60 f i p5engine.obj
 0002:00008ff0       ?RecanonicalizeCoord@@YAXMPEAHPEAM@Z 0000000180019ff0 f i p5engine.obj
 0002:00009060       ?RectCenterDim@@YA?AUrectangle2@@Tv2@@0@Z 000000018001a060 f i p5engine.obj
 0002:00009190       ?RectCenterHalfDim@@YA?AUrectangle2@@Tv2@@0@Z 000000018001a190 f i p5engine.obj
 0002:00009330       ?RectanglesIntersect@@YAHUrectangle3@@0@Z 000000018001a330 f i p5engine.obj
 0002:000097e0       ?RoundReal32ToInt32@@YAHM@Z 000000018001a7e0 f i p5engine.obj
 0002:00009820       ?RoundReal32ToUInt32@@YAIM@Z 000000018001a820 f i p5engine.obj
 0002:000098d0       ?SRGB255ToLinear1@@YA?ATv4@@T1@@Z 000000018001a8d0 f i p5engine.obj
 0002:00009be0       ?Sin@@YAMM@Z               000000018001abe0 f i p5engine.obj
 0002:00009c80       ?Square@@YAMM@Z            000000018001ac80 f i p5engine.obj
 0002:00009cb0       ?SquareRoot@@YAMM@Z        000000018001acb0 f i p5engine.obj
 0002:00009e60       ?StoreEntityReference@@YAXPEATentity_reference@@@Z 000000018001ae60 f i p5engine.obj
 0002:00009f50       ?ToV4@@YA?ATv4@@Tv3@@M@Z   000000018001af50 f i p5engine.obj
 0002:0000a0a0       ?V2@@YA?ATv2@@MM@Z         000000018001b0a0 f i p5engine.obj
 0002:0000a110       ?V2i@@YA?ATv2@@HH@Z        000000018001b110 f i p5engine.obj
 0002:0000a230       ?ZeroSize@@YAX_KPEAX@Z     000000018001b230 f i p5engine.obj
 0002:0000a270       GameUpdateAndRender        000000018001b270 f   p5engine.obj
 0002:0000c8a0       GameGetSoundSamples        000000018001d8a0 f   p5engine.obj
 0002:0000c910       __CheckForDebuggerJustMyCode 000000018001d910 f   MSVCRTD:debugger_jmc.obj
 0002:0000c960       __GSHandlerCheck           000000018001d960 f   MSVCRTD:gshandler.obj
 0002:0000c9b0       __GSHandlerCheckCommon     000000018001d9b0 f   MSVCRTD:gshandler.obj
 0002:0000cb00       __security_check_cookie    000000018001db00 f   MSVCRTD:amdsecgs.obj
 0002:0000d030       _CRT_INIT                  000000018001e030 f   MSVCRTD:dll_dllmain.obj
 0002:0000d070       _DllMainCRTStartup         000000018001e070 f   MSVCRTD:dll_dllmain.obj
 0002:0000d0c0       __raise_securityfailure    000000018001e0c0 f   MSVCRTD:gs_report.obj
 0002:0000d110       __report_gsfailure         000000018001e110 f   MSVCRTD:gs_report.obj
 0002:0000d220       __report_rangecheckfailure 000000018001e220 f   MSVCRTD:gs_report.obj
 0002:0000d240       __report_securityfailure   000000018001e240 f   MSVCRTD:gs_report.obj
 0002:0000d310       __report_securityfailureEx 000000018001e310 f   MSVCRTD:gs_report.obj
 0002:0000d700       __security_init_cookie     000000018001e700 f   MSVCRTD:gs_support.obj
 0002:0000d7a0       DllMain                    000000018001e7a0 f   MSVCRTD:dll_dllmain_stub.obj
 0002:0000d7f0       ?__scrt_initialize_type_info@@YAXXZ 000000018001e7f0 f   MSVCRTD:tncleanup.obj
 0002:0000d810       ?__scrt_uninitialize_type_info@@YAXXZ 000000018001e810 f   MSVCRTD:tncleanup.obj
 0002:0000d830       __local_stdio_printf_options 000000018001e830 f i MSVCRTD:default_local_stdio_options.obj
 0002:0000d840       __local_stdio_scanf_options 000000018001e840 f i MSVCRTD:default_local_stdio_options.obj
 0002:0000d850       __scrt_initialize_default_local_stdio_options 000000018001e850 f   MSVCRTD:default_local_stdio_options.obj
 0002:0000d8b0       ?configure_argv@__scrt_narrow_argv_policy@@SAHXZ 000000018001e8b0 f i MSVCRTD:utility.obj
 0002:0000d9d0       ?initialize_environment@__scrt_narrow_environment_policy@@SAHXZ 000000018001e9d0 f i MSVCRTD:utility.obj
 0002:0000daa0       NtCurrentTeb               000000018001eaa0 f i MSVCRTD:utility.obj
 0002:0000dab0       __scrt_acquire_startup_lock 000000018001eab0 f   MSVCRTD:utility.obj
 0002:0000db30       __scrt_dllmain_after_initialize_c 000000018001eb30 f   MSVCRTD:utility.obj
 0002:0000db70       __scrt_dllmain_before_initialize_c 000000018001eb70 f   MSVCRTD:utility.obj
 0002:0000dba0       __scrt_dllmain_crt_thread_attach 000000018001eba0 f   MSVCRTD:utility.obj
 0002:0000dbe0       __scrt_dllmain_crt_thread_detach 000000018001ebe0 f   MSVCRTD:utility.obj
 0002:0000dc00       __scrt_dllmain_exception_filter 000000018001ec00 f   MSVCRTD:utility.obj
 0002:0000dc80       __scrt_dllmain_uninitialize_c 000000018001ec80 f   MSVCRTD:utility.obj
 0002:0000dcc0       __scrt_dllmain_uninitialize_critical 000000018001ecc0 f   MSVCRTD:utility.obj
 0002:0000dce0       __scrt_initialize_crt      000000018001ece0 f   MSVCRTD:utility.obj
 0002:0000dd40       __scrt_initialize_onexit_tables 000000018001ed40 f   MSVCRTD:utility.obj
 0002:0000de90       __scrt_is_nonwritable_in_current_image 000000018001ee90 f   MSVCRTD:utility.obj
 0002:0000df40       __scrt_release_startup_lock 000000018001ef40 f   MSVCRTD:utility.obj
 0002:0000df80       __scrt_uninitialize_crt    000000018001ef80 f   MSVCRTD:utility.obj
 0002:0000dfd0       _onexit                    000000018001efd0 f   MSVCRTD:utility.obj
 0002:0000e070       at_quick_exit              000000018001f070 f   MSVCRTD:utility.obj
 0002:0000e0d0       atexit                     000000018001f0d0 f   MSVCRTD:utility.obj
 0002:0000e110       __scrt_get_dyn_tls_init_callback 000000018001f110 f   MSVCRTD:dyn_tls_init.obj
 0002:0000e120       __crt_debugger_hook        000000018001f120 f   MSVCRTD:utility_desktop.obj
 0002:0000e140       __scrt_fastfail            000000018001f140 f   MSVCRTD:utility_desktop.obj
 0002:0000e340       __scrt_get_show_window_mode 000000018001f340 f   MSVCRTD:utility_desktop.obj
 0002:0000e3b0       __scrt_initialize_mta      000000018001f3b0 f   MSVCRTD:utility_desktop.obj
 0002:0000e3d0       __scrt_initialize_winrt    000000018001f3d0 f   MSVCRTD:utility_desktop.obj
 0002:0000e3e0       __scrt_is_managed_app      000000018001f3e0 f   MSVCRTD:utility_desktop.obj
 0002:0000e4b0       __scrt_set_unhandled_exception_filter 000000018001f4b0 f   MSVCRTD:utility_desktop.obj
 0002:0000e4d0       __scrt_stub_for_initialize_mta 000000018001f4d0 f   MSVCRTD:utility_desktop.obj
 0002:0000e4d0       __scrt_exe_initialize_mta  000000018001f4d0 f   MSVCRTD:utility_desktop.obj
 0002:0000e4e0       __scrt_unhandled_exception_filter 000000018001f4e0 f   MSVCRTD:utility_desktop.obj
 0002:0000e5a0       _RTC_Initialize            000000018001f5a0 f   MSVCRTD:initsect.obj
 0002:0000e600       _RTC_Terminate             000000018001f600 f   MSVCRTD:initsect.obj
 0002:0000e660       _guard_check_icall_nop     000000018001f660 f i MSVCRTD:guard_support.obj
 0002:0000e670       ReadNoFence64              000000018001f670 f i MSVCRTD:guard_support.obj
 0002:0000e6a0       ReadPointerNoFence         000000018001f6a0 f i MSVCRTD:guard_support.obj
 0002:0000e6c0       __castguard_check_failure_debugbreak 000000018001f6c0 f i MSVCRTD:guard_support.obj
 0002:0000e6f0       __castguard_check_failure_fastfail 000000018001f6f0 f i MSVCRTD:guard_support.obj
 0002:0000e720       __castguard_check_failure_nop 000000018001f720 f i MSVCRTD:guard_support.obj
 0002:0000e730       __castguard_check_failure_os_handled 000000018001f730 f i MSVCRTD:guard_support.obj
 0002:0000e820       __castguard_slow_path_check_debugbreak 000000018001f820 f i MSVCRTD:guard_support.obj
 0002:0000e870       __castguard_slow_path_check_fastfail 000000018001f870 f i MSVCRTD:guard_support.obj
 0002:0000e8d0       __castguard_slow_path_check_nop 000000018001f8d0 f i MSVCRTD:guard_support.obj
 0002:0000e8f0       __castguard_slow_path_check_os_handled 000000018001f8f0 f i MSVCRTD:guard_support.obj
 0002:0000ea00       _guard_icall_checks_enforced 000000018001fa00 f i MSVCRTD:guard_support.obj
 0002:0000ea50       _guard_rf_checks_enforced  000000018001fa50 f i MSVCRTD:guard_support.obj
 0002:0000ea60       __isa_available_init       000000018001fa60 f   MSVCRTD:cpu_disp.obj
 0002:0000eee0       _get_startup_argv_mode     000000018001fee0 f   MSVCRTD:argv_mode.obj
 0002:0000eef0       __scrt_is_ucrt_dll_in_use  000000018001fef0 f   MSVCRTD:ucrt_detection.obj
 0002:0000ef20       memset                     000000018001ff20 f   vcruntimed:VCRUNTIME140D.dll
 0002:0000ef26       __C_specific_handler       000000018001ff26 f   vcruntimed:VCRUNTIME140D.dll
 0002:0000ef2c       __std_type_info_destroy_list 000000018001ff2c f   vcruntimed:VCRUNTIME140D.dll
 0002:0000ef32       __current_exception        000000018001ff32 f   vcruntimed:VCRUNTIME140D.dll
 0002:0000ef38       __current_exception_context 000000018001ff38 f   vcruntimed:VCRUNTIME140D.dll
 0002:0000ef3e       roundf                     000000018001ff3e f   ucrtd:ucrtbased.dll
 0002:0000ef44       ceilf                      000000018001ff44 f   ucrtd:ucrtbased.dll
 0002:0000ef4a       cosf                       000000018001ff4a f   ucrtd:ucrtbased.dll
 0002:0000ef50       floorf                     000000018001ff50 f   ucrtd:ucrtbased.dll
 0002:0000ef56       sinf                       000000018001ff56 f   ucrtd:ucrtbased.dll
 0002:0000ef5c       sqrtf                      000000018001ff5c f   ucrtd:ucrtbased.dll
 0002:0000ef62       _initterm                  000000018001ff62 f   ucrtd:ucrtbased.dll
 0002:0000ef68       _initterm_e                000000018001ff68 f   ucrtd:ucrtbased.dll
 0002:0000ef6e       _seh_filter_dll            000000018001ff6e f   ucrtd:ucrtbased.dll
 0002:0000ef74       _configure_narrow_argv     000000018001ff74 f   ucrtd:ucrtbased.dll
 0002:0000ef7a       _initialize_narrow_environment 000000018001ff7a f   ucrtd:ucrtbased.dll
 0002:0000ef80       _initialize_onexit_table   000000018001ff80 f   ucrtd:ucrtbased.dll
 0002:0000ef86       _register_onexit_function  000000018001ff86 f   ucrtd:ucrtbased.dll
 0002:0000ef8c       _execute_onexit_table      000000018001ff8c f   ucrtd:ucrtbased.dll
 0002:0000ef92       _crt_atexit                000000018001ff92 f   ucrtd:ucrtbased.dll
 0002:0000ef98       _crt_at_quick_exit         000000018001ff98 f   ucrtd:ucrtbased.dll
 0002:0000ef9e       _cexit                     000000018001ff9e f   ucrtd:ucrtbased.dll
 0002:0000efa4       terminate                  000000018001ffa4 f   ucrtd:ucrtbased.dll
 0002:0000efaa       GetCurrentThreadId         000000018001ffaa f   kernel32:KERNEL32.dll
 0002:0000efb0       RtlCaptureContext          000000018001ffb0 f   kernel32:KERNEL32.dll
 0002:0000efb6       RtlLookupFunctionEntry     000000018001ffb6 f   kernel32:KERNEL32.dll
 0002:0000efbc       RtlVirtualUnwind           000000018001ffbc f   kernel32:KERNEL32.dll
 0002:0000efc2       UnhandledExceptionFilter   000000018001ffc2 f   kernel32:KERNEL32.dll
 0002:0000efc8       SetUnhandledExceptionFilter 000000018001ffc8 f   kernel32:KERNEL32.dll
 0002:0000efce       GetCurrentProcess          000000018001ffce f   kernel32:KERNEL32.dll
 0002:0000efd4       TerminateProcess           000000018001ffd4 f   kernel32:KERNEL32.dll
 0002:0000efda       IsProcessorFeaturePresent  000000018001ffda f   kernel32:KERNEL32.dll
 0002:0000efe0       QueryPerformanceCounter    000000018001ffe0 f   kernel32:KERNEL32.dll
 0002:0000efe6       GetCurrentProcessId        000000018001ffe6 f   kernel32:KERNEL32.dll
 0002:0000efec       GetSystemTimeAsFileTime    000000018001ffec f   kernel32:KERNEL32.dll
 0002:0000eff2       DisableThreadLibraryCalls  000000018001fff2 f   kernel32:KERNEL32.dll
 0002:0000eff8       InitializeSListHead        000000018001fff8 f   kernel32:KERNEL32.dll
 0002:0000effe       IsDebuggerPresent          000000018001fffe f   kernel32:KERNEL32.dll
 0002:0000f004       GetStartupInfoW            0000000180020004 f   kernel32:KERNEL32.dll
 0002:0000f00a       GetModuleHandleW           000000018002000a f   kernel32:KERNEL32.dll
 0002:0000f010       __scrt_stub_for_acrt_initialize 0000000180020010 f   MSVCRTD:ucrt_stubs.obj
 0002:0000f010       __acrt_initialize          0000000180020010 f   MSVCRTD:ucrt_stubs.obj
 0002:0000f010       __vcrt_initialize          0000000180020010 f   MSVCRTD:ucrt_stubs.obj
 0002:0000f020       __acrt_thread_attach       0000000180020020 f   MSVCRTD:ucrt_stubs.obj
 0002:0000f020       __scrt_stub_for_acrt_thread_attach 0000000180020020 f   MSVCRTD:ucrt_stubs.obj
 0002:0000f020       __vcrt_thread_attach       0000000180020020 f   MSVCRTD:ucrt_stubs.obj
 0002:0000f030       __scrt_stub_for_acrt_thread_detach 0000000180020030 f   MSVCRTD:ucrt_stubs.obj
 0002:0000f030       __acrt_thread_detach       0000000180020030 f   MSVCRTD:ucrt_stubs.obj
 0002:0000f030       __vcrt_thread_detach       0000000180020030 f   MSVCRTD:ucrt_stubs.obj
 0002:0000f040       __vcrt_uninitialize        0000000180020040 f   MSVCRTD:ucrt_stubs.obj
 0002:0000f040       __scrt_stub_for_acrt_uninitialize 0000000180020040 f   MSVCRTD:ucrt_stubs.obj
 0002:0000f040       __acrt_uninitialize        0000000180020040 f   MSVCRTD:ucrt_stubs.obj
 0002:0000f050       __acrt_uninitialize_critical 0000000180020050 f   MSVCRTD:ucrt_stubs.obj
 0002:0000f050       __vcrt_uninitialize_critical 0000000180020050 f   MSVCRTD:ucrt_stubs.obj
 0002:0000f050       __scrt_stub_for_acrt_uninitialize_critical 0000000180020050 f   MSVCRTD:ucrt_stubs.obj
 0002:0000f060       __scrt_stub_for_is_c_termination_complete 0000000180020060 f   MSVCRTD:ucrt_stubs.obj
 0002:0000f060       _is_c_termination_complete 0000000180020060 f   MSVCRTD:ucrt_stubs.obj
 0002:00010520       _guard_dispatch_icall_nop  0000000180021520 f   MSVCRTD:guard_dispatch.obj
 0002:00010540       _guard_xfg_dispatch_icall_nop 0000000180021540 f   MSVCRTD:guard_xfg_dispatch.obj
 0003:00000000       __xc_a                     0000000180024000     MSVCRTD:initializers.obj
 0003:00000110       __xc_z                     0000000180024110     MSVCRTD:initializers.obj
 0003:00000220       __xi_a                     0000000180024220     MSVCRTD:initializers.obj
 0003:00000330       __xi_z                     0000000180024330     MSVCRTD:initializers.obj
 0003:00000440       __xp_a                     0000000180024440     MSVCRTD:initializers.obj
 0003:00000550       __xp_z                     0000000180024550     MSVCRTD:initializers.obj
 0003:00000660       __xt_a                     0000000180024660     MSVCRTD:initializers.obj
 0003:00000770       __xt_z                     0000000180024770     MSVCRTD:initializers.obj
 0003:00000880       ??_C@_0BJ@GOOPBPNK@P5Engine?1data?1grass1?4bmp@ 0000000180024880     p5engine.obj
 0003:0000089c       __real@c11ccccd            000000018002489c     p5engine.obj
 0003:000008a0       ??_C@_0BI@GAHHFIBN@P5Engine?1data?1soil1?4bmp@ 00000001800248a0     p5engine.obj
 0003:000008c0       ??_C@_0BI@OGODCKLD@P5Engine?1data?1soil2?4bmp@ 00000001800248c0     p5engine.obj
 0003:000008e0       ??_C@_0BI@CNLPPJBG@P5Engine?1data?1soil3?4bmp@ 00000001800248e0     p5engine.obj
 0003:00000900       ??_C@_0BI@DGFEELIO@P5Engine?1data?1tuft1?4bmp@ 0000000180024900     p5engine.obj
 0003:00000920       ??_C@_0BI@LAMADJCA@P5Engine?1data?1tuft2?4bmp@ 0000000180024920     p5engine.obj
 0003:00000940       ??_C@_0BF@HOIOEMCL@P5Engine?1data?1bg?4bmp@ 0000000180024940     p5engine.obj
 0003:00000960       ??_C@_0BJ@EPENJOEL@P5Engine?1data?1shadow?4bmp@ 0000000180024960     p5engine.obj
 0003:00000980       ??_C@_0BJ@HEECFFOE@P5Engine?1data?1stairs?4bmp@ 0000000180024980     p5engine.obj
 0003:000009a0       ??_C@_0BH@DDOBAHNL@P5Engine?1data?1tree?4bmp@ 00000001800249a0     p5engine.obj
 0003:000009c0       ??_C@_0BI@EPGPCLAL@P5Engine?1data?1enemy?4bmp@ 00000001800249c0     p5engine.obj
 0003:000009e0       ??_C@_0BG@IEBKPHGI@P5Engine?1data?1orb?4bmp@ 00000001800249e0     p5engine.obj
 0003:00000a00       ??_C@_0BP@CIDLMIJA@P5Engine?1data?1char?9right?90?4bmp@ 0000000180024a00     p5engine.obj
 0003:00000a28       ??_C@_0BO@PEBAPFLC@P5Engine?1data?1char?9back?90?4bmp@ 0000000180024a28     p5engine.obj
 0003:00000a50       ??_C@_0BO@EAIBBIAG@P5Engine?1data?1char?9left?90?4bmp@ 0000000180024a50     p5engine.obj
 0003:00000a78       ??_C@_0BP@MKDPGEOC@P5Engine?1data?1char?9front?90?4bmp@ 0000000180024a78     p5engine.obj
 0003:00000aa0       ??_C@_0BO@KNNOBFKI@P5Engine?1data?1sword?9right?4bmp@ 0000000180024aa0     p5engine.obj
 0003:00000ac8       ??_C@_0BN@LDDHILOB@P5Engine?1data?1sword?9back?4bmp@ 0000000180024ac8     p5engine.obj
 0003:00000af0       ??_C@_0BN@FPAHMBGA@P5Engine?1data?1sword?9left?4bmp@ 0000000180024af0     p5engine.obj
 0003:00000b18       ??_C@_0BO@BNDLMGBJ@P5Engine?1data?1sword?9front?4bmp@ 0000000180024b18     p5engine.obj
 0003:00000b3c       __real@308992b1            0000000180024b3c     p5engine.obj
 0003:00000b40       __real@3a83126f            0000000180024b40     p5engine.obj
 0003:00000b44       __real@3b808081            0000000180024b44     p5engine.obj
 0003:00000b48       __real@3c23d70a            0000000180024b48     p5engine.obj
 0003:00000b4c       __real@3dcccccd            0000000180024b4c     p5engine.obj
 0003:00000b50       __real@3e4ccccd            0000000180024b50     p5engine.obj
 0003:00000b54       __real@3e800000            0000000180024b54     p5engine.obj
 0003:00000b58       __real@3eaaaaab            0000000180024b58     p5engine.obj
 0003:00000b5c       __real@3f000000            0000000180024b5c     p5engine.obj
 0003:00000b60       __real@3f3504f3            0000000180024b60     p5engine.obj
 0003:00000b64       __real@3f666666            0000000180024b64     p5engine.obj
 0003:00000b68       __real@3f800000            0000000180024b68     p5engine.obj
 0003:00000b6c       __real@3f8ccccd            0000000180024b6c     p5engine.obj
 0003:00000b70       __real@3f99999a            0000000180024b70     p5engine.obj
 0003:00000b74       __real@3fb33333            0000000180024b74     p5engine.obj
 0003:00000b78       __real@3fc00000            0000000180024b78     p5engine.obj
 0003:00000b7c       __real@40000000            0000000180024b7c     p5engine.obj
 0003:00000b80       __real@401921fb60000000    0000000180024b80     p5engine.obj
 0003:00000b8c       __real@40333333            0000000180024b8c     p5engine.obj
 0003:00000b90       __real@40400000            0000000180024b90     p5engine.obj
 0003:00000b94       __real@40a00000            0000000180024b94     p5engine.obj
 0003:00000b98       __real@40be82fa            0000000180024b98     p5engine.obj
 0003:00000b9c       __real@40c00000            0000000180024b9c     p5engine.obj
 0003:00000ba0       __real@40c90fdb            0000000180024ba0     p5engine.obj
 0003:00000ba4       __real@41200000            0000000180024ba4     p5engine.obj
 0003:00000ba8       __real@41499999            0000000180024ba8     p5engine.obj
 0003:00000bac       __real@41700000            0000000180024bac     p5engine.obj
 0003:00000bb0       __real@41880000            0000000180024bb0     p5engine.obj
 0003:00000bb4       __real@41a00000            0000000180024bb4     p5engine.obj
 0003:00000bb8       __real@41be6666            0000000180024bb8     p5engine.obj
 0003:00000bbc       __real@41c00000            0000000180024bbc     p5engine.obj
 0003:00000bc0       __real@41f00000            0000000180024bc0     p5engine.obj
 0003:00000bc4       __real@42000000            0000000180024bc4     p5engine.obj
 0003:00000bc8       __real@42600000            0000000180024bc8     p5engine.obj
 0003:00000bcc       __real@42800000            0000000180024bcc     p5engine.obj
 0003:00000bd0       __real@42960000            0000000180024bd0     p5engine.obj
 0003:00000bd4       __real@42c80000            0000000180024bd4     p5engine.obj
 0003:00000bd8       __real@437f0000            0000000180024bd8     p5engine.obj
 0003:00000bdc       __real@461c4000            0000000180024bdc     p5engine.obj
 0003:00000be0       __real@47c35000            0000000180024be0     p5engine.obj
 0003:00000be4       __real@7f7fffff            0000000180024be4     p5engine.obj
 0003:00000be8       __real@becccccd            0000000180024be8     p5engine.obj
 0003:00000bec       __real@bf000000            0000000180024bec     p5engine.obj
 0003:00000bf0       __real@bf800000            0000000180024bf0     p5engine.obj
 0003:00000bf4       __real@c0000000            0000000180024bf4     p5engine.obj
 0003:00000c00       __xmm@7fffffff7fffffff7fffffff7fffffff 0000000180024c00     p5engine.obj
 0003:00000c20       __xmm@80000000800000008000000080000000 0000000180024c20     p5engine.obj
 0003:00000c38       _pDefaultRawDllMain        0000000180024c38     MSVCRTD:dll_dllmain.obj
 0003:00000c38       _pRawDllMain               0000000180024c38     MSVCRTD:dll_dllmain.obj
 0003:00000ca0       _load_config_used          0000000180024ca0     MSVCRTD:loadcfg.obj
 0003:00000f80       __CastGuardVftablesStart   0000000180024f80     MSVCRTD:guard_support.obj
 0003:00001090       __CastGuardVftablesEnd     0000000180025090     MSVCRTD:guard_support.obj
 0003:00001320       __rtc_iaa                  0000000180025320     MSVCRTD:initsect.obj
 0003:00001430       __rtc_izz                  0000000180025430     MSVCRTD:initsect.obj
 0003:00001540       __rtc_taa                  0000000180025540     MSVCRTD:initsect.obj
 0003:00001650       __rtc_tzz                  0000000180025650     MSVCRTD:initsect.obj
 0004:00004cd0       __security_cookie_complement 000000018002bcd0     MSVCRTD:gs_cookie.obj
 0004:00004cd8       __security_cookie          000000018002bcd8     MSVCRTD:gs_cookie.obj
 0004:00004ce4       _fltused                   000000018002bce4     MSVCRTD:fltused.obj
 0004:00004ce8       __scrt_native_dllmain_reason 000000018002bce8     MSVCRTD:utility.obj
 0004:00004cf0       __isa_available            000000018002bcf0     MSVCRTD:cpu_disp.obj
 0004:00004cf4       __isa_enabled              000000018002bcf4     MSVCRTD:cpu_disp.obj
 0004:00004cf8       __memcpy_nt_iters          000000018002bcf8     MSVCRTD:cpu_disp.obj
 0004:00004d00       __memset_nt_iters          000000018002bd00     MSVCRTD:cpu_disp.obj
 0004:00004d10       __scrt_ucrt_dll_is_in_use  000000018002bd10     MSVCRTD:ucrt_stubs.obj
 0004:000054c0       ?__type_info_root_node@@3U__type_info_node@@A 000000018002c4c0     MSVCRTD:tncleanup.obj
 0004:000054d8       ?_OptionsStorage@?1??__local_stdio_printf_options@@9@4_KA 000000018002c4d8     MSVCRTD:default_local_stdio_options.obj
 0004:000054e8       ?_OptionsStorage@?1??__local_stdio_scanf_options@@9@4_KA 000000018002c4e8     MSVCRTD:default_local_stdio_options.obj
 0004:000054f8       __scrt_current_native_startup_state 000000018002c4f8     MSVCRTD:utility.obj
 0004:00005500       __scrt_native_startup_lock 000000018002c500     MSVCRTD:utility.obj
 0004:00005550       __scrt_debugger_hook_flag  000000018002c550     MSVCRTD:utility_desktop.obj
 0004:00005558       __castguard_check_failure_os_handled_fptr 000000018002c558     MSVCRTD:guard_support.obj
 0004:00005564       __favor                    000000018002c564     MSVCRTD:cpu_disp.obj
 0004:00005568       __dyn_tls_init_callback    000000018002c568     <common>
 0004:0000557c       __DebuggerCurrentSteppingThreadId 000000018002c57c     <common>
 0006:00000000       __imp_GetCurrentProcessId  0000000180030000     kernel32:KERNEL32.dll
 0006:00000008       __imp_RtlCaptureContext    0000000180030008     kernel32:KERNEL32.dll
 0006:00000010       __imp_RtlLookupFunctionEntry 0000000180030010     kernel32:KERNEL32.dll
 0006:00000018       __imp_RtlVirtualUnwind     0000000180030018     kernel32:KERNEL32.dll
 0006:00000020       __imp_UnhandledExceptionFilter 0000000180030020     kernel32:KERNEL32.dll
 0006:00000028       __imp_GetModuleHandleW     0000000180030028     kernel32:KERNEL32.dll
 0006:00000030       __imp_GetStartupInfoW      0000000180030030     kernel32:KERNEL32.dll
 0006:00000038       __imp_IsDebuggerPresent    0000000180030038     kernel32:KERNEL32.dll
 0006:00000040       __imp_InitializeSListHead  0000000180030040     kernel32:KERNEL32.dll
 0006:00000048       __imp_DisableThreadLibraryCalls 0000000180030048     kernel32:KERNEL32.dll
 0006:00000050       __imp_GetSystemTimeAsFileTime 0000000180030050     kernel32:KERNEL32.dll
 0006:00000058       __imp_GetCurrentThreadId   0000000180030058     kernel32:KERNEL32.dll
 0006:00000060       __imp_QueryPerformanceCounter 0000000180030060     kernel32:KERNEL32.dll
 0006:00000068       __imp_IsProcessorFeaturePresent 0000000180030068     kernel32:KERNEL32.dll
 0006:00000070       __imp_TerminateProcess     0000000180030070     kernel32:KERNEL32.dll
 0006:00000078       __imp_GetCurrentProcess    0000000180030078     kernel32:KERNEL32.dll
 0006:00000080       __imp_SetUnhandledExceptionFilter 0000000180030080     kernel32:KERNEL32.dll
 0006:00000088       \177KERNEL32_NULL_THUNK_DATA 0000000180030088     kernel32:KERNEL32.dll
 0006:000000f8       __imp___std_type_info_destroy_list 00000001800300f8     vcruntimed:VCRUNTIME140D.dll
 0006:00000100       __imp___C_specific_handler 0000000180030100     vcruntimed:VCRUNTIME140D.dll
 0006:00000108       __imp_memset               0000000180030108     vcruntimed:VCRUNTIME140D.dll
 0006:00000110       __imp___current_exception  0000000180030110     vcruntimed:VCRUNTIME140D.dll
 0006:00000118       __imp___current_exception_context 0000000180030118     vcruntimed:VCRUNTIME140D.dll
 0006:00000120       \177VCRUNTIME140D_NULL_THUNK_DATA 0000000180030120     vcruntimed:VCRUNTIME140D.dll
 0006:00000180       __imp_terminate            0000000180030180     ucrtd:ucrtbased.dll
 0006:00000188       __imp__cexit               0000000180030188     ucrtd:ucrtbased.dll
 0006:00000190       __imp__crt_atexit          0000000180030190     ucrtd:ucrtbased.dll
 0006:00000198       __imp__execute_onexit_table 0000000180030198     ucrtd:ucrtbased.dll
 0006:000001a0       __imp__register_onexit_function 00000001800301a0     ucrtd:ucrtbased.dll
 0006:000001a8       __imp__initialize_onexit_table 00000001800301a8     ucrtd:ucrtbased.dll
 0006:000001b0       __imp__initialize_narrow_environment 00000001800301b0     ucrtd:ucrtbased.dll
 0006:000001b8       __imp__configure_narrow_argv 00000001800301b8     ucrtd:ucrtbased.dll
 0006:000001c0       __imp__seh_filter_dll      00000001800301c0     ucrtd:ucrtbased.dll
 0006:000001c8       __imp__initterm_e          00000001800301c8     ucrtd:ucrtbased.dll
 0006:000001d0       __imp__initterm            00000001800301d0     ucrtd:ucrtbased.dll
 0006:000001d8       __imp_sqrtf                00000001800301d8     ucrtd:ucrtbased.dll
 0006:000001e0       __imp_sinf                 00000001800301e0     ucrtd:ucrtbased.dll
 0006:000001e8       __imp_floorf               00000001800301e8     ucrtd:ucrtbased.dll
 0006:000001f0       __imp_cosf                 00000001800301f0     ucrtd:ucrtbased.dll
 0006:000001f8       __imp_ceilf                00000001800301f8     ucrtd:ucrtbased.dll
 0006:00000200       __imp_roundf               0000000180030200     ucrtd:ucrtbased.dll
 0006:00000208       __imp__crt_at_quick_exit   0000000180030208     ucrtd:ucrtbased.dll
 0006:00000210       \177ucrtbased_NULL_THUNK_DATA 0000000180030210     ucrtd:ucrtbased.dll
 0006:00000280       __IMPORT_DESCRIPTOR_VCRUNTIME140D 0000000180030280     vcruntimed:VCRUNTIME140D.dll
 0006:00000294       __IMPORT_DESCRIPTOR_ucrtbased 0000000180030294     ucrtd:ucrtbased.dll
 0006:000002a8       __IMPORT_DESCRIPTOR_KERNEL32 00000001800302a8     kernel32:KERNEL32.dll
 0006:000002bc       __NULL_IMPORT_DESCRIPTOR   00000001800302bc     vcruntimed:VCRUNTIME140D.dll
 0008:00000000       __guard_check_icall_fptr   0000000180032000     MSVCRTD:guard_support.obj
 0008:00000010       __guard_xfg_check_icall_fptr 0000000180032010     MSVCRTD:guard_support.obj
 0008:00000020       __guard_dispatch_icall_fptr 0000000180032020     MSVCRTD:guard_support.obj
 0008:00000030       __guard_xfg_dispatch_icall_fptr 0000000180032030     MSVCRTD:guard_support.obj
 0008:00000040       __guard_xfg_table_dispatch_icall_fptr 0000000180032040     MSVCRTD:guard_support.obj

 entry point at        0002:0000000f

 Static symbols

 0000:fffcb000       .debug$S                   0000000180000000     P5Engine.exp
 0000:fffce000       _volmd                     0000000180000000     MSVCRTD:cpu_disp.obj
 0000:fffcf000       __guard_ehcont_?dllmain_dispatch@@YAHQEAUHINSTANCE__@@KQEAX@Z 0000000180000000     MSVCRTD:dll_dllmain.obj
 0000:fffcf000       __guard_fids_?dllmain_dispatch@@YAHQEAUHINSTANCE__@@KQEAX@Z 0000000180000000     MSVCRTD:dll_dllmain.obj
 0000:fffce000       _volmd                     0000000180000000     MSVCRTD:gs_report.obj
 0000:fffce000       _volmd                     0000000180000000     MSVCRTD:gs_report.obj
 0000:fffce000       _volmd                     0000000180000000     MSVCRTD:gs_report.obj
 0000:fffcf000       __guard_fids__             0000000180000000     MSVCRTD:guard_support.obj
 0000:fffcf000       __guard_fids__             0000000180000000     MSVCRTD:guard_support.obj
 0000:fffcf000       __guard_fids__guard_icall_checks_enforced 0000000180000000     MSVCRTD:guard_support.obj
 0000:fffce000       _volmd                     0000000180000000     MSVCRTD:guard_support.obj
 0000:fffce000       _volmd                     0000000180000000     MSVCRTD:guard_support.obj
 0000:fffce000       _volmd                     0000000180000000     MSVCRTD:guard_support.obj
 0000:fffcf000       __guard_ehcont___scrt_is_nonwritable_in_current_image 0000000180000000     MSVCRTD:utility.obj
 0000:fffce000       _volmd                     0000000180000000     MSVCRTD:utility.obj
 0000:fffce000       _volmd                     0000000180000000     MSVCRTD:utility.obj
 0000:fffce000       _volmd                     0000000180000000     MSVCRTD:utility.obj
 0000:fffcf000       __guard_fids___scrt_set_unhandled_exception_filter 0000000180000000     MSVCRTD:utility_desktop.obj
 0000:fffce000       _volmd                     0000000180000000     MSVCRTD:utility_desktop.obj
 0000:fffcb000       .debug$S                   0000000180000000     vcruntimed:VCRUNTIME140D.dll
 0000:fffcb000       .debug$S                   0000000180000000     vcruntimed:VCRUNTIME140D.dll
 0000:fffcb000       .debug$S                   0000000180000000     vcruntimed:VCRUNTIME140D.dll
 0000:fffcb000       .debug$S                   0000000180000000     vcruntimed:VCRUNTIME140D.dll
 0000:fffcb000       .debug$S                   0000000180000000     vcruntimed:VCRUNTIME140D.dll
 0000:fffcb000       .debug$S                   0000000180000000     ucrtd:ucrtbased.dll
 0000:fffcb000       .debug$S                   0000000180000000     ucrtd:ucrtbased.dll
 0000:fffcb000       .debug$S                   0000000180000000     ucrtd:ucrtbased.dll
 0000:fffcb000       .debug$S                   0000000180000000     ucrtd:ucrtbased.dll
 0000:fffcb000       .debug$S                   0000000180000000     ucrtd:ucrtbased.dll
 0000:fffcb000       .debug$S                   0000000180000000     ucrtd:ucrtbased.dll
 0000:fffcb000       .debug$S                   0000000180000000     ucrtd:ucrtbased.dll
 0000:fffcb000       .debug$S                   0000000180000000     ucrtd:ucrtbased.dll
 0000:fffcb000       .debug$S                   0000000180000000     ucrtd:ucrtbased.dll
 0000:fffcb000       .debug$S                   0000000180000000     ucrtd:ucrtbased.dll
 0000:fffcb000       .debug$S                   0000000180000000     ucrtd:ucrtbased.dll
 0000:fffcb000       .debug$S                   0000000180000000     ucrtd:ucrtbased.dll
 0000:fffcb000       .debug$S                   0000000180000000     ucrtd:ucrtbased.dll
 0000:fffcb000       .debug$S                   0000000180000000     ucrtd:ucrtbased.dll
 0000:fffcb000       .debug$S                   0000000180000000     ucrtd:ucrtbased.dll
 0000:fffcb000       .debug$S                   0000000180000000     ucrtd:ucrtbased.dll
 0000:fffcb000       .debug$S                   0000000180000000     ucrtd:ucrtbased.dll
 0000:fffcb000       .debug$S                   0000000180000000     ucrtd:ucrtbased.dll
 0000:fffcb000       .debug$S                   0000000180000000     kernel32:KERNEL32.dll
 0000:fffcb000       .debug$S                   0000000180000000     kernel32:KERNEL32.dll
 0000:fffcb000       .debug$S                   0000000180000000     kernel32:KERNEL32.dll
 0000:fffcb000       .debug$S                   0000000180000000     kernel32:KERNEL32.dll
 0000:fffcb000       .debug$S                   0000000180000000     kernel32:KERNEL32.dll
 0000:fffcb000       .debug$S                   0000000180000000     kernel32:KERNEL32.dll
 0000:fffcb000       .debug$S                   0000000180000000     kernel32:KERNEL32.dll
 0000:fffcb000       .debug$S                   0000000180000000     kernel32:KERNEL32.dll
 0000:fffcb000       .debug$S                   0000000180000000     kernel32:KERNEL32.dll
 0000:fffcb000       .debug$S                   0000000180000000     kernel32:KERNEL32.dll
 0000:fffcb000       .debug$S                   0000000180000000     kernel32:KERNEL32.dll
 0000:fffcb000       .debug$S                   0000000180000000     kernel32:KERNEL32.dll
 0000:fffcb000       .debug$S                   0000000180000000     kernel32:KERNEL32.dll
 0000:fffcb000       .debug$S                   0000000180000000     kernel32:KERNEL32.dll
 0000:fffcb000       .debug$S                   0000000180000000     kernel32:KERNEL32.dll
 0000:fffcb000       .debug$S                   0000000180000000     kernel32:KERNEL32.dll
 0000:fffcb000       .debug$S                   0000000180000000     kernel32:KERNEL32.dll
 0002:00000ff0       ?AddCollisionRule@@YAXPEAUgame_state@@IIH@Z 0000000180011ff0 f   p5engine.obj
 0002:000010f0       ?AddEntity@@YAPEAUsim_entity@@PEAUgame_state@@PEAUsim_region@@IPEAUlow_entity@@PEATv3@@@Z 00000001800120f0 f   p5engine.obj
 0002:00001220       ?AddEntityRaw@@YAPEAUsim_entity@@PEAUgame_state@@PEAUsim_region@@IPEAUlow_entity@@@Z 0000000180012220 f   p5engine.obj
 0002:00001390       ?AddFamiliar@@YA?AUadd_low_entity_result@@PEAUgame_state@@III@Z 0000000180012390 f   p5engine.obj
 0002:00001500       ?AddGroundedEntity@@YA?AUadd_low_entity_result@@PEAUgame_state@@W4entity_type@@Uworld_position@@PEAUsim_entity_collision_volume_group@@@Z 0000000180012500 f   p5engine.obj
 0002:000015b0       ?AddLowEntity@@YA?AUadd_low_entity_result@@PEAUgame_state@@W4entity_type@@Uworld_position@@@Z 00000001800125b0 f   p5engine.obj
 0002:00001740       ?AddMonstar@@YA?AUadd_low_entity_result@@PEAUgame_state@@III@Z 0000000180012740 f   p5engine.obj
 0002:00001880       ?AddPlayer@@YA?AUadd_low_entity_result@@PEAUgame_state@@@Z 0000000180012880 f   p5engine.obj
 0002:00001a60       ?AddStairs@@YA?AUadd_low_entity_result@@PEAUgame_state@@III@Z 0000000180012a60 f   p5engine.obj
 0002:00001bb0       ?AddStandardRoom@@YA?AUadd_low_entity_result@@PEAUgame_state@@III@Z 0000000180012bb0 f   p5engine.obj
 0002:00001ce0       ?AddSword@@YA?AUadd_low_entity_result@@PEAUgame_state@@@Z 0000000180012ce0 f   p5engine.obj
 0002:00001d90       ?AddWall@@YA?AUadd_low_entity_result@@PEAUgame_state@@III@Z 0000000180012d90 f   p5engine.obj
 0002:00001ec0       ?AllocateRenderGroup@@YAPEAUrender_group@@PEAUmemory_arena@@IM@Z 0000000180012ec0 f   p5engine.obj
 0002:00002080       ?BeginSim@@YAPEAUsim_region@@PEAUmemory_arena@@PEAUgame_state@@PEAUworld@@Uworld_position@@Urectangle3@@M@Z 0000000180013080 f   p5engine.obj
 0002:00002680       ?CanCollide@@YAHPEAUgame_state@@PEAUsim_entity@@1@Z 0000000180013680 f   p5engine.obj
 0002:00002790       ?CanOverlap@@YAHPEAUgame_state@@PEAUsim_entity@@1@Z 0000000180013790 f   p5engine.obj
 0002:00002890       ?ChangeEntityLocation@@YAXPEAUmemory_arena@@PEAUworld@@IPEAUlow_entity@@Uworld_position@@@Z 0000000180013890 f   p5engine.obj
 0002:00002c80       ?MakeEmptyBitmap@@YA?AUloaded_bitmap@@PEAUmemory_arena@@HHH@Z 0000000180013c80 f   p5engine.obj
 0002:00002d20       ?ChangeSaturation@@YAXPEAUloaded_bitmap@@M@Z 0000000180013d20 f   p5engine.obj
 0002:00003440       ?ClearBitmap@@YAXPEAUloaded_bitmap@@@Z 0000000180014440 f   p5engine.obj
 0002:00003490       ?ClearCollisionRulesFor@@YAXPEAUgame_state@@I@Z 0000000180014490 f   p5engine.obj
 0002:00003690       ?DEBUGLoadBMP@@YA?AUloaded_bitmap@@PEAUthread_context@@P6A?AUdebug_read_file_result@@0PEAD@Z1@Z 0000000180014690 f   p5engine.obj
 0002:00003a80       ?DrawHitpoints@@YAXPEAUsim_entity@@PEAUrender_group@@@Z 0000000180014a80 f   p5engine.obj
 0002:00003ca0       ?DrawRectangle@@YAXPEAUloaded_bitmap@@Tv2@@1Tv4@@@Z 0000000180014ca0 f   p5engine.obj
 0002:00003ea0       ?DrawRectangleSlowly@@YAXPEAUloaded_bitmap@@Tv2@@11Tv4@@00PEAUenvironment_map@@33@Z 0000000180014ea0 f   p5engine.obj
 0002:00004aa0       ?EndSim@@YAXPEAUsim_region@@PEAUgame_state@@@Z 0000000180015aa0 f   p5engine.obj
 0002:00004dc0       ?EntitiesOverlap@@YAHPEAUsim_entity@@0Tv3@@@Z 0000000180015dc0 f   p5engine.obj
 0002:000051b0       ?FillGroundChunk@@YAXPEAUtransient_state@@PEAUgame_state@@PEAUground_buffer@@PEAUworld_position@@@Z 00000001800161b0 f   p5engine.obj
 0002:00005620       ?SpeculativeCollide@@YAHPEAUsim_entity@@0Tv3@@@Z 0000000180016620 f   p5engine.obj
 0002:000057f0       ?GameOutputSound@@YAXPEAUgame_state@@PEAUgame_sound_output_buffer@@H@Z 00000001800167f0 f   p5engine.obj
 0002:00005970       ?GetHashFromStorageIndex@@YAPEAUsim_entity_hash@@PEAUsim_region@@I@Z 0000000180016970 f   p5engine.obj
 0002:00005fe0       ?HandleCollision@@YAHPEAUgame_state@@PEAUsim_entity@@1@Z 0000000180016fe0 f   p5engine.obj
 0002:00006090       ?HandleOverlap@@YAXPEAUgame_state@@PEAUsim_entity@@1MPEAM@Z 0000000180017090 f   p5engine.obj
 0002:00006150       ?InitHitPoints@@YAXPEAUlow_entity@@I@Z 0000000180017150 f   p5engine.obj
 0002:00006220       ?InitializeWorld@@YAXPEAUworld@@Tv3@@@Z 0000000180017220 f   p5engine.obj
 0002:00006b10       ?MakeNullCollision@@YAPEAUsim_entity_collision_volume_group@@PEAUgame_state@@@Z 0000000180017b10 f   p5engine.obj
 0002:00006c20       ?MakeSimpleGroundedCollision@@YAPEAUsim_entity_collision_volume_group@@PEAUgame_state@@MMM@Z 0000000180017c20 f   p5engine.obj
 0002:00006d00       ?MakeSphereNormalMap@@YAXPEAUloaded_bitmap@@MMM@Z 0000000180017d00 f   p5engine.obj
 0002:000071d0       ?MoveEntity@@YAXPEAUgame_state@@PEAUsim_region@@PEAUsim_entity@@MPEAUmove_spec@@Tv3@@@Z 00000001800181d0 f   p5engine.obj
 0002:00008ba0       ?Subtract@@YA?ATv3@@PEAUworld@@PEAUworld_position@@1@Z 0000000180019ba0 f   p5engine.obj
 0002:000093b0       ?RenderGroupToOutput@@YAXPEAUrender_group@@PEAUloaded_bitmap@@@Z 000000018001a3b0 f   p5engine.obj
 0002:0000c108       $LN236                     000000018001d108     p5engine.obj
 0002:0000caf0       $$000000                   000000018001daf0     MSVCRTD:amdsecgs.obj
 0002:0000cb30       ?dllmain_crt_dispatch@@YAHQEAUHINSTANCE__@@KQEAX@Z 000000018001db30 f   MSVCRTD:dll_dllmain.obj
 0002:0000cbe0       ?dllmain_crt_process_attach@@YAHQEAUHINSTANCE__@@QEAX@Z 000000018001dbe0 f   MSVCRTD:dll_dllmain.obj
 0002:0000cd70       ?dllmain_crt_process_detach@@YAH_N@Z 000000018001dd70 f   MSVCRTD:dll_dllmain.obj
 0002:0000ce30       ?dllmain_dispatch@@YAHQEAUHINSTANCE__@@KQEAX@Z 000000018001de30 f   MSVCRTD:dll_dllmain.obj
 0002:0000cfc0       ?dllmain_raw@@YAHQEAUHINSTANCE__@@KQEAX@Z 000000018001dfc0 f   MSVCRTD:dll_dllmain.obj
 0002:0000d470       capture_current_context    000000018001e470 f   MSVCRTD:gs_report.obj
 0002:0000d530       capture_previous_context   000000018001e530 f   MSVCRTD:gs_report.obj
 0002:0000d610       __get_entropy              000000018001e610 f   MSVCRTD:gs_support.obj
 0002:0000d8d0       ?find_pe_section@@YAPEAU_IMAGE_SECTION_HEADER@@QEAE_K@Z 000000018001e8d0 f   MSVCRTD:utility.obj
 0002:0000d9f0       ?is_potentially_valid_image_base@@YA_NQEAX@Z 000000018001e9f0 f   MSVCRTD:utility.obj
 0002:0000e790       __castguard_compat_check   000000018001f790 f   MSVCRTD:guard_support.obj
 0002:0000e970       __castguard_slow_path_compat_check 000000018001f970 f   MSVCRTD:guard_support.obj
 0002:00010510       $$000000                   0000000180021510     MSVCRTD:guard_dispatch.obj
 0002:00010530       $$000000                   0000000180021530     MSVCRTD:guard_xfg_dispatch.obj
 0002:00011550       ?fin$0@?0??dllmain_crt_process_attach@@YAHQEAUHINSTANCE__@@QEAX@Z@4HA 0000000180022550 f   MSVCRTD:dll_dllmain.obj
 0002:00011570       ?fin$0@?0??dllmain_crt_process_detach@@YAH_N@Z@4HA 0000000180022570 f   MSVCRTD:dll_dllmain.obj
 0002:0001158a       ?fin$1@?0??dllmain_crt_process_detach@@YAH_N@Z@4HA 000000018002258a f   MSVCRTD:dll_dllmain.obj
 0002:000115b0       ?filt$0@?0??dllmain_dispatch@@YAHQEAUHINSTANCE__@@KQEAX@Z@4HA 00000001800225b0 f   MSVCRTD:dll_dllmain.obj
 0002:00011610       __scrt_is_nonwritable_in_current_image$filt$0 0000000180022610 f   MSVCRTD:utility.obj
 0003:00000c48       GS_ExceptionPointers       0000000180024c48     MSVCRTD:gs_report.obj
 0003:00001760       $unwind$GetController      0000000180025760     p5engine.obj
 0003:00001770       $unwind$?InitializeArena@@YAXPEAUmemory_arena@@_KPEAX@Z 0000000180025770     p5engine.obj
 0003:00001784       $unwind$?PushSize_@@YAPEAXPEAUmemory_arena@@_K@Z 0000000180025784     p5engine.obj
 0003:00001794       $unwind$?BeginTemporaryMemory@@YA?AUtemporary_memory@@PEAUmemory_arena@@@Z 0000000180025794     p5engine.obj
 0003:000017a4       $unwind$?EndTemporaryMemory@@YAXUtemporary_memory@@@Z 00000001800257a4     p5engine.obj
 0003:000017ac       $unwind$?CheckArena@@YAXPEAUmemory_arena@@@Z 00000001800257ac     p5engine.obj
 0003:000017b4       $unwind$?ZeroSize@@YAX_KPEAX@Z 00000001800257b4     p5engine.obj
 0003:000017c4       $unwind$?SquareRoot@@YAMM@Z 00000001800257c4     p5engine.obj
 0003:000017d4       $unwind$?AbsoluteValue@@YAMM@Z 00000001800257d4     p5engine.obj
 0003:000017e4       $unwind$?RoundReal32ToInt32@@YAHM@Z 00000001800257e4     p5engine.obj
 0003:000017f4       $unwind$?RoundReal32ToUInt32@@YAIM@Z 00000001800257f4     p5engine.obj
 0003:00001804       $unwind$?FloorReal32ToInt32@@YAHM@Z 0000000180025804     p5engine.obj
 0003:00001814       $unwind$?CeilReal32ToInt32@@YAHM@Z 0000000180025814     p5engine.obj
 0003:00001824       $unwind$?Sin@@YAMM@Z       0000000180025824     p5engine.obj
 0003:00001834       $unwind$?Cos@@YAMM@Z       0000000180025834     p5engine.obj
 0003:00001844       $unwind$?FindLeastSignificantSetBit@@YA?AUbit_scan_result@@I@Z 0000000180025844     p5engine.obj
 0003:00001858       $unwind$?Square@@YAMM@Z    0000000180025858     p5engine.obj
 0003:00001868       $unwind$?Clamp@@YAMMMM@Z   0000000180025868     p5engine.obj
 0003:00001880       $unwind$?Clamp01@@YAMM@Z   0000000180025880     p5engine.obj
 0003:00001890       $unwind$?V2@@YA?ATv2@@MM@Z 0000000180025890     p5engine.obj
 0003:000018a4       $unwind$?V2i@@YA?ATv2@@HH@Z 00000001800258a4     p5engine.obj
 0003:000018b4       $unwind$??D@YA?ATv2@@MT0@@Z 00000001800258b4     p5engine.obj
 0003:000018c4       $unwind$??G@YA?ATv2@@T0@@Z 00000001800258c4     p5engine.obj
 0003:000018cc       $unwind$??H@YA?ATv2@@T0@0@Z 00000001800258cc     p5engine.obj
 0003:000018d4       $unwind$??Y@YAAEATv2@@AEAT0@T0@@Z 00000001800258d4     p5engine.obj
 0003:000018e4       $unwind$??G@YA?ATv2@@T0@0@Z 00000001800258e4     p5engine.obj
 0003:000018ec       $unwind$?Inner@@YAMTv2@@0@Z 00000001800258ec     p5engine.obj
 0003:000018f4       $unwind$?LengthSq@@YAMTv2@@@Z 00000001800258f4     p5engine.obj
 0003:000018fc       $unwind$?Length@@YAMTv2@@@Z 00000001800258fc     p5engine.obj
 0003:00001904       $unwind$?Clamp01@@YA?ATv2@@T1@@Z 0000000180025904     p5engine.obj
 0003:0000190c       $unwind$?Perp@@YA?ATv2@@T1@@Z 000000018002590c     p5engine.obj
 0003:00001914       $unwind$?V3@@YA?ATv3@@MMM@Z 0000000180025914     p5engine.obj
 0003:0000192c       $unwind$??D@YA?ATv3@@MT0@@Z 000000018002592c     p5engine.obj
 0003:00001940       $unwind$??D@YA?ATv3@@T0@M@Z 0000000180025940     p5engine.obj
 0003:00001954       $unwind$??X@YAAEATv3@@AEAT0@M@Z 0000000180025954     p5engine.obj
 0003:00001964       $unwind$??K@YA?ATv3@@T0@M@Z 0000000180025964     p5engine.obj
 0003:00001978       $unwind$??H@YA?ATv3@@T0@0@Z 0000000180025978     p5engine.obj
 0003:0000198c       $unwind$??Y@YAAEATv3@@AEAT0@T0@@Z 000000018002598c     p5engine.obj
 0003:0000199c       $unwind$??G@YA?ATv3@@T0@0@Z 000000018002599c     p5engine.obj
 0003:000019b0       $unwind$??Z@YAAEATv3@@AEAT0@T0@@Z 00000001800259b0     p5engine.obj
 0003:000019c0       $unwind$?Hadamard@@YA?ATv3@@T1@0@Z 00000001800259c0     p5engine.obj
 0003:000019d4       $unwind$?Inner@@YAMTv3@@0@Z 00000001800259d4     p5engine.obj
 0003:000019e4       $unwind$?LengthSq@@YAMTv3@@@Z 00000001800259e4     p5engine.obj
 0003:000019ec       $unwind$?Length@@YAMTv3@@@Z 00000001800259ec     p5engine.obj
 0003:000019f4       $unwind$?Normalize@@YA?ATv3@@T1@@Z 00000001800259f4     p5engine.obj
 0003:00001a04       $unwind$?Clamp01@@YA?ATv3@@T1@@Z 0000000180025a04     p5engine.obj
 0003:00001a14       $unwind$?Lerp@@YA?ATv3@@T1@M0@Z 0000000180025a14     p5engine.obj
 0003:00001a2c       $unwind$?V4@@YA?ATv4@@MMMM@Z 0000000180025a2c     p5engine.obj
 0003:00001a40       $unwind$?ToV4@@YA?ATv4@@Tv3@@M@Z 0000000180025a40     p5engine.obj
 0003:00001a54       $unwind$??D@YA?ATv4@@MT0@@Z 0000000180025a54     p5engine.obj
 0003:00001a68       $unwind$??H@YA?ATv4@@T0@0@Z 0000000180025a68     p5engine.obj
 0003:00001a7c       $unwind$?Hadamard@@YA?ATv4@@T1@0@Z 0000000180025a7c     p5engine.obj
 0003:00001a94       $unwind$?Lerp@@YA?ATv4@@T1@M0@Z 0000000180025a94     p5engine.obj
 0003:00001aa8       $unwind$?RectCenterHalfDim@@YA?AUrectangle2@@Tv2@@0@Z 0000000180025aa8     p5engine.obj
 0003:00001ab8       $unwind$?ClearFlags@@YAXPEAUsim_entity@@I@Z 0000000180025ab8     p5engine.obj
 0003:00001ac4       $unwind$?GetBarycentric@@YA?ATv2@@Urectangle2@@T1@@Z 0000000180025ac4     p5engine.obj
 0003:00001ad4       $unwind$?GetMinCorner@@YA?ATv3@@Urectangle3@@@Z 0000000180025ad4     p5engine.obj
 0003:00001ae4       $unwind$?GetMaxCorner@@YA?ATv3@@Urectangle3@@@Z 0000000180025ae4     p5engine.obj
 0003:00001af8       $unwind$?RectCenterHalfDim@@YA?AUrectangle3@@Tv3@@0@Z 0000000180025af8     p5engine.obj
 0003:00001b0c       $unwind$?AddRadiusTo@@YA?AUrectangle3@@U1@Tv3@@@Z 0000000180025b0c     p5engine.obj
 0003:00001b20       $unwind$?RectCenterDim@@YA?AUrectangle3@@Tv3@@0@Z 0000000180025b20     p5engine.obj
 0003:00001b30       $unwind$?IsInRectangle@@YAHUrectangle3@@Tv3@@@Z 0000000180025b30     p5engine.obj
 0003:00001b40       $unwind$?RectanglesIntersect@@YAHUrectangle3@@0@Z 0000000180025b40     p5engine.obj
 0003:00001b50       $unwind$?HasFlag@@YAHPEAUsim_entity@@I@Z 0000000180025b50     p5engine.obj
 0003:00001b60       $unwind$?AddFlags@@YAXPEAUsim_entity@@I@Z 0000000180025b60     p5engine.obj
 0003:00001b6c       $unwind$?RandomChoice@@YAIPEAUrandom_series@@I@Z 0000000180025b6c     p5engine.obj
 0003:00001b78       $unwind$?MakeEntityNonSpatial@@YAXPEAUsim_entity@@@Z 0000000180025b78     p5engine.obj
 0003:00001b80       $unwind$GameGetSoundSamples 0000000180025b80     p5engine.obj
 0003:00001b8c       $unwind$?MakeEntitySpatial@@YAXPEAUsim_entity@@Tv3@@1@Z 0000000180025b8c     p5engine.obj
 0003:00001b9c       $unwind$?GetEntityGroundPoint@@YA?ATv3@@PEAUsim_entity@@T1@@Z 0000000180025b9c     p5engine.obj
 0003:00001bac       $unwind$?GetEntityGroundPoint@@YA?ATv3@@PEAUsim_entity@@@Z 0000000180025bac     p5engine.obj
 0003:00001bbc       $unwind$?GetStairGround@@YAMPEAUsim_entity@@Tv3@@@Z 0000000180025bbc     p5engine.obj
 0003:00001bcc       $unwind$?GetLowEntity@@YAPEAUlow_entity@@PEAUgame_state@@I@Z 0000000180025bcc     p5engine.obj
 0003:00001bd8       $unwind$?AddCollisionRule@@YAXPEAUgame_state@@IIH@Z 0000000180025bd8     p5engine.obj
 0003:00001bf8       $unwind$?ClearCollisionRulesFor@@YAXPEAUgame_state@@I@Z 0000000180025bf8     p5engine.obj
 0003:00001c08       $unwind$?Unpack4x8@@YA?ATv4@@I@Z 0000000180025c08     p5engine.obj
 0003:00001c1c       $unwind$?SRGB255ToLinear1@@YA?ATv4@@T1@@Z 0000000180025c1c     p5engine.obj
 0003:00001c30       $unwind$?Linear1ToSRGB255@@YA?ATv4@@T1@@Z 0000000180025c30     p5engine.obj
 0003:00001c40       $unwind$?UnscaleAndBiasNormal@@YA?ATv4@@T1@@Z 0000000180025c40     p5engine.obj
 0003:00001c4c       $unwind$?DrawRectangle@@YAXPEAUloaded_bitmap@@Tv2@@1Tv4@@@Z 0000000180025c4c     p5engine.obj
 0003:00001c78       $chain$9$?RenderGroupToOutput@@YAXPEAUrender_group@@PEAUloaded_bitmap@@@Z 0000000180025c78     p5engine.obj
 0003:00001c88       $unwind$?BilinearSample@@YA?AUbilinear_sample@@PEAUloaded_bitmap@@HH@Z 0000000180025c88     p5engine.obj
 0003:00001c9c       $unwind$?SampleEnvironmentMap@@YA?ATv3@@Tv2@@T1@MPEAUenvironment_map@@M@Z 0000000180025c9c     p5engine.obj
 0003:00001cbc       $unwind$?SRGBBilinearBlend@@YA?ATv4@@Ubilinear_sample@@MM@Z 0000000180025cbc     p5engine.obj
 0003:00001cec       $unwind$?DrawRectangleSlowly@@YAXPEAUloaded_bitmap@@Tv2@@11Tv4@@00PEAUenvironment_map@@33@Z 0000000180025cec     p5engine.obj
 0003:00001d2c       $chain$1$?DrawRectangleSlowly@@YAXPEAUloaded_bitmap@@Tv2@@11Tv4@@00PEAUenvironment_map@@33@Z 0000000180025d2c     p5engine.obj
 0003:00001d48       $chain$2$?DrawRectangleSlowly@@YAXPEAUloaded_bitmap@@Tv2@@11Tv4@@00PEAUenvironment_map@@33@Z 0000000180025d48     p5engine.obj
 0003:00001d58       $unwind$?ChangeSaturation@@YAXPEAUloaded_bitmap@@M@Z 0000000180025d58     p5engine.obj
 0003:00001d70       $chain$5$?ChangeSaturation@@YAXPEAUloaded_bitmap@@M@Z 0000000180025d70     p5engine.obj
 0003:00001d9c       $chain$6$?ChangeSaturation@@YAXPEAUloaded_bitmap@@M@Z 0000000180025d9c     p5engine.obj
 0003:00001db4       $unwind$?PushRenderElement_@@YAPEAXPEAUrender_group@@IW4render_group_entry_type@@@Z 0000000180025db4     p5engine.obj
 0003:00001dd0       $unwind$?PushEntry@@YAXPEAUrender_group@@PEAUloaded_bitmap@@Tv2@@2M2Tv4@@M@Z 0000000180025dd0     p5engine.obj
 0003:00001de8       $unwind$?PushBitmap@@YAXPEAUrender_group@@PEAUloaded_bitmap@@Tv2@@M2MM@Z 0000000180025de8     p5engine.obj
 0003:00001e00       $unwind$?PushRect@@YAXPEAUrender_group@@Tv2@@M1Tv4@@M@Z 0000000180025e00     p5engine.obj
 0003:00001e14       $chain$0$?PushRect@@YAXPEAUrender_group@@Tv2@@M1Tv4@@M@Z 0000000180025e14     p5engine.obj
 0003:00001e28       $unwind$?AllocateRenderGroup@@YAPEAUrender_group@@PEAUmemory_arena@@IM@Z 0000000180025e28     p5engine.obj
 0003:00001e44       $chain$1$?PushRect@@YAXPEAUrender_group@@Tv2@@M1Tv4@@M@Z 0000000180025e44     p5engine.obj
 0003:00001e54       $unwind$?GetWorldChunk@@YAPEAUworld_chunk@@PEAUworld@@HHHPEAUmemory_arena@@@Z 0000000180025e54     p5engine.obj
 0003:00001e6c       $unwind$?Clear@@YAXPEAUrender_group@@Tv4@@@Z 0000000180025e6c     p5engine.obj
 0003:00001e80       $unwind$?CoordinateSystem@@YAPEAUrender_entry_coordinate_system@@PEAUrender_group@@Tv2@@11Tv4@@PEAUloaded_bitmap@@3PEAUenvironment_map@@44@Z 0000000180025e80     p5engine.obj
 0003:00001e94       $unwind$?GetRenderEntityBasisPos@@YA?ATv2@@PEAUrender_group@@PEAUrender_entity_basis@@T1@@Z 0000000180025e94     p5engine.obj
 0003:00001ea4       $unwind$?ChunkPositionFromTilePosition@@YA?AUworld_position@@PEAUworld@@HHHTv3@@@Z 0000000180025ea4     p5engine.obj
 0003:00001ed0       $unwind$?RenderGroupToOutput@@YAXPEAUrender_group@@PEAUloaded_bitmap@@@Z 0000000180025ed0     p5engine.obj
 0003:00001ee0       $unwind$?Subtract@@YA?ATv3@@PEAUworld@@PEAUworld_position@@1@Z 0000000180025ee0     p5engine.obj
 0003:00001f0c       $unwind$?NullPosition@@YA?AUworld_position@@XZ 0000000180025f0c     p5engine.obj
 0003:00001f20       $unwind$?IsValid@@YAHUworld_position@@@Z 0000000180025f20     p5engine.obj
 0003:00001f30       $unwind$?IsCanonical@@YAHMM@Z 0000000180025f30     p5engine.obj
 0003:00001f44       $unwind$?IsCanonical@@YAHPEAUworld@@Tv3@@@Z 0000000180025f44     p5engine.obj
 0003:00001f50       $chain$2$?LoadEntityReference@@YAXPEAUgame_state@@PEAUsim_region@@PEATentity_reference@@@Z 0000000180025f50     p5engine.obj
 0003:00001f60       $unwind$?AreInSameChunk@@YAHPEAUworld@@PEAUworld_position@@1@Z 0000000180025f60     p5engine.obj
 0003:00001f70       $unwind$?AddWall@@YA?AUadd_low_entity_result@@PEAUgame_state@@III@Z 0000000180025f70     p5engine.obj
 0003:00001f84       $unwind$?InitializeWorld@@YAXPEAUworld@@Tv3@@@Z 0000000180025f84     p5engine.obj
 0003:00001f9c       $unwind$?RecanonicalizeCoord@@YAXMPEAHPEAM@Z 0000000180025f9c     p5engine.obj
 0003:00001fac       $unwind$?ChangeEntityLocationRaw@@YAXPEAUmemory_arena@@PEAUworld@@IPEAUworld_position@@2@Z 0000000180025fac     p5engine.obj
 0003:00001fc4       $unwind$?MapIntoChunkSpace@@YA?AUworld_position@@PEAUworld@@U1@Tv3@@@Z 0000000180025fc4     p5engine.obj
 0003:00001fd8       $unwind$?ChangeEntityLocation@@YAXPEAUmemory_arena@@PEAUworld@@IPEAUlow_entity@@Uworld_position@@@Z 0000000180025fd8     p5engine.obj
 0003:00001ff4       $unwind$?EntityOverlapsRectangle@@YAHTv3@@Usim_entity_collision_volume@@Urectangle3@@@Z 0000000180025ff4     p5engine.obj
 0003:0000201c       $unwind$?CenteredChunkPoint@@YA?AUworld_position@@III@Z 000000018002601c     p5engine.obj
 0003:00002030       $chain$2$?EndSim@@YAXPEAUsim_region@@PEAUgame_state@@@Z 0000000180026030     p5engine.obj
 0003:0000204c       $unwind$?AddStairs@@YA?AUadd_low_entity_result@@PEAUgame_state@@III@Z 000000018002604c     p5engine.obj
 0003:00002060       $unwind$?GetHashFromStorageIndex@@YAPEAUsim_entity_hash@@PEAUsim_region@@I@Z 0000000180026060     p5engine.obj
 0003:00002078       $unwind$?GetSimSpacePos@@YA?ATv3@@PEAUsim_region@@PEAUlow_entity@@@Z 0000000180026078     p5engine.obj
 0003:00002090       $unwind$?AddEntity@@YAPEAUsim_entity@@PEAUgame_state@@PEAUsim_region@@IPEAUlow_entity@@PEATv3@@@Z 0000000180026090     p5engine.obj
 0003:000020a8       $unwind$?LoadEntityReference@@YAXPEAUgame_state@@PEAUsim_region@@PEATentity_reference@@@Z 00000001800260a8     p5engine.obj
 0003:000020c0       $chain$0$?LoadEntityReference@@YAXPEAUgame_state@@PEAUsim_region@@PEATentity_reference@@@Z 00000001800260c0     p5engine.obj
 0003:000020d4       $chain$1$?LoadEntityReference@@YAXPEAUgame_state@@PEAUsim_region@@PEATentity_reference@@@Z 00000001800260d4     p5engine.obj
 0003:000020f0       $chain$3$?LoadEntityReference@@YAXPEAUgame_state@@PEAUsim_region@@PEATentity_reference@@@Z 00000001800260f0     p5engine.obj
 0003:00002108       $unwind$?StoreEntityReference@@YAXPEATentity_reference@@@Z 0000000180026108     p5engine.obj
 0003:00002110       $chain$7$?DrawHitpoints@@YAXPEAUsim_entity@@PEAUrender_group@@@Z 0000000180026110     p5engine.obj
 0003:00002120       $unwind$?AddEntityRaw@@YAPEAUsim_entity@@PEAUgame_state@@PEAUsim_region@@IPEAUlow_entity@@@Z 0000000180026120     p5engine.obj
 0003:00002134       $chain$0$?AddEntityRaw@@YAPEAUsim_entity@@PEAUgame_state@@PEAUsim_region@@IPEAUlow_entity@@@Z 0000000180026134     p5engine.obj
 0003:00002158       $chain$1$?AddEntityRaw@@YAPEAUsim_entity@@PEAUgame_state@@PEAUsim_region@@IPEAUlow_entity@@@Z 0000000180026158     p5engine.obj
 0003:00002168       $unwind$?EntitiesOverlap@@YAHPEAUsim_entity@@0Tv3@@@Z 0000000180026168     p5engine.obj
 0003:00002188       $unwind$?BeginSim@@YAPEAUsim_region@@PEAUmemory_arena@@PEAUgame_state@@PEAUworld@@Uworld_position@@Urectangle3@@M@Z 0000000180026188     p5engine.obj
 0003:0000219c       $chain$0$?BeginSim@@YAPEAUsim_region@@PEAUmemory_arena@@PEAUgame_state@@PEAUworld@@Uworld_position@@Urectangle3@@M@Z 000000018002619c     p5engine.obj
 0003:000021b8       $chain$1$?BeginSim@@YAPEAUsim_region@@PEAUmemory_arena@@PEAUgame_state@@PEAUworld@@Uworld_position@@Urectangle3@@M@Z 00000001800261b8     p5engine.obj
 0003:000021cc       $chain$3$?BeginSim@@YAPEAUsim_region@@PEAUmemory_arena@@PEAUgame_state@@PEAUworld@@Uworld_position@@Urectangle3@@M@Z 00000001800261cc     p5engine.obj
 0003:000021e4       $chain$4$?BeginSim@@YAPEAUsim_region@@PEAUmemory_arena@@PEAUgame_state@@PEAUworld@@Uworld_position@@Urectangle3@@M@Z 00000001800261e4     p5engine.obj
 0003:00002204       $unwind$?EndSim@@YAXPEAUsim_region@@PEAUgame_state@@@Z 0000000180026204     p5engine.obj
 0003:00002218       $unwind$?AddMonstar@@YA?AUadd_low_entity_result@@PEAUgame_state@@III@Z 0000000180026218     p5engine.obj
 0003:00002230       $chain$3$?EndSim@@YAXPEAUsim_region@@PEAUgame_state@@@Z 0000000180026230     p5engine.obj
 0003:00002248       $unwind$?CanCollide@@YAHPEAUgame_state@@PEAUsim_entity@@1@Z 0000000180026248     p5engine.obj
 0003:0000225c       $chain$0$?CanCollide@@YAHPEAUgame_state@@PEAUsim_entity@@1@Z 000000018002625c     p5engine.obj
 0003:00002274       $chain$1$?CanCollide@@YAHPEAUgame_state@@PEAUsim_entity@@1@Z 0000000180026274     p5engine.obj
 0003:00002288       $chain$2$?CanCollide@@YAHPEAUgame_state@@PEAUsim_entity@@1@Z 0000000180026288     p5engine.obj
 0003:0000229c       $chain$3$?CanCollide@@YAHPEAUgame_state@@PEAUsim_entity@@1@Z 000000018002629c     p5engine.obj
 0003:000022ac       $unwind$?HandleCollision@@YAHPEAUgame_state@@PEAUsim_entity@@1@Z 00000001800262ac     p5engine.obj
 0003:000022bc       $unwind$?CanOverlap@@YAHPEAUgame_state@@PEAUsim_entity@@1@Z 00000001800262bc     p5engine.obj
 0003:000022d0       $unwind$?HandleOverlap@@YAXPEAUgame_state@@PEAUsim_entity@@1MPEAM@Z 00000001800262d0     p5engine.obj
 0003:000022f4       $unwind$?SpeculativeCollide@@YAHPEAUsim_entity@@0Tv3@@@Z 00000001800262f4     p5engine.obj
 0003:00002304       $unwind$?MoveEntity@@YAXPEAUgame_state@@PEAUsim_region@@PEAUsim_entity@@MPEAUmove_spec@@Tv3@@@Z 0000000180026304     p5engine.obj
 0003:00002354       $unwind$?DefaultMoveSpec@@YA?AUmove_spec@@XZ 0000000180026354     p5engine.obj
 0003:0000235c       $unwind$?RandomSeed@@YA?AUrandom_series@@I@Z 000000018002635c     p5engine.obj
 0003:0000236c       $unwind$?RandomNextUInt32@@YAIPEAUrandom_series@@@Z 000000018002636c     p5engine.obj
 0003:0000237c       $unwind$?RandomUnilateral@@YAMPEAUrandom_series@@@Z 000000018002637c     p5engine.obj
 0003:00002390       $unwind$?GameOutputSound@@YAXPEAUgame_state@@PEAUgame_sound_output_buffer@@H@Z 0000000180026390     p5engine.obj
 0003:00002398       $unwind$?AddLowEntity@@YA?AUadd_low_entity_result@@PEAUgame_state@@W4entity_type@@Uworld_position@@@Z 0000000180026398     p5engine.obj
 0003:000023b4       $unwind$?DEBUGLoadBMP@@YA?AUloaded_bitmap@@PEAUthread_context@@P6A?AUdebug_read_file_result@@0PEAD@Z1@Z 00000001800263b4     p5engine.obj
 0003:000023e0       $chain$4$?DEBUGLoadBMP@@YA?AUloaded_bitmap@@PEAUthread_context@@P6A?AUdebug_read_file_result@@0PEAD@Z1@Z 00000001800263e0     p5engine.obj
 0003:000023f4       $chain$5$?DEBUGLoadBMP@@YA?AUloaded_bitmap@@PEAUthread_context@@P6A?AUdebug_read_file_result@@0PEAD@Z1@Z 00000001800263f4     p5engine.obj
 0003:00002414       $chain$6$?DEBUGLoadBMP@@YA?AUloaded_bitmap@@PEAUthread_context@@P6A?AUdebug_read_file_result@@0PEAD@Z1@Z 0000000180026414     p5engine.obj
 0003:00002424       $unwind$?MakeSphereNormalMap@@YAXPEAUloaded_bitmap@@MMM@Z 0000000180026424     p5engine.obj
 0003:00002444       $unwind$?AddGroundedEntity@@YA?AUadd_low_entity_result@@PEAUgame_state@@W4entity_type@@Uworld_position@@PEAUsim_entity_collision_volume_group@@@Z 0000000180026444     p5engine.obj
 0003:0000245c       $unwind$?AddStandardRoom@@YA?AUadd_low_entity_result@@PEAUgame_state@@III@Z 000000018002645c     p5engine.obj
 0003:00002494       $unwind$?InitHitPoints@@YAXPEAUlow_entity@@I@Z 0000000180026494     p5engine.obj
 0003:000024a4       $unwind$?AddSword@@YA?AUadd_low_entity_result@@PEAUgame_state@@@Z 00000001800264a4     p5engine.obj
 0003:000024bc       $unwind$?AddPlayer@@YA?AUadd_low_entity_result@@PEAUgame_state@@@Z 00000001800264bc     p5engine.obj
 0003:000024e4       $unwind$?AddFamiliar@@YA?AUadd_low_entity_result@@PEAUgame_state@@III@Z 00000001800264e4     p5engine.obj
 0003:00002514       $unwind$?DrawHitpoints@@YAXPEAUsim_entity@@PEAUrender_group@@@Z 0000000180026514     p5engine.obj
 0003:0000254c       $unwind$?MakeSimpleGroundedCollision@@YAPEAUsim_entity_collision_volume_group@@PEAUgame_state@@MMM@Z 000000018002654c     p5engine.obj
 0003:0000259c       $unwind$?MakeNullCollision@@YAPEAUsim_entity_collision_volume_group@@PEAUgame_state@@@Z 000000018002659c     p5engine.obj
 0003:000025bc       $unwind$?ClearBitmap@@YAXPEAUloaded_bitmap@@@Z 00000001800265bc     p5engine.obj
 0003:000025e0       $unwind$?MakeEmptyBitmap@@YA?AUloaded_bitmap@@PEAUmemory_arena@@HHH@Z 00000001800265e0     p5engine.obj
 0003:00002628       $chain$7$?MakeSphereNormalMap@@YAXPEAUloaded_bitmap@@MMM@Z 0000000180026628     p5engine.obj
 0003:0000267c       $chain$8$?MakeSphereNormalMap@@YAXPEAUloaded_bitmap@@MMM@Z 000000018002667c     p5engine.obj
 0003:0000268c       $unwind$__CheckForDebuggerJustMyCode 000000018002668c     MSVCRTD:debugger_jmc.obj
 0003:00002694       $unwind$__GSHandlerCheckCommon 0000000180026694     MSVCRTD:gshandler.obj
 0003:0000269c       $unwind$__GSHandlerCheck   000000018002669c     MSVCRTD:gshandler.obj
 0003:000026a8       $xdatasym                  00000001800266a8     MSVCRTD:amdsecgs.obj
 0003:000026ac       $unwind$?dllmain_crt_process_attach@@YAHQEAUHINSTANCE__@@QEAX@Z 00000001800266ac     MSVCRTD:dll_dllmain.obj
 0003:000026d0       $unwind$?fin$0@?0??dllmain_crt_process_attach@@YAHQEAUHINSTANCE__@@QEAX@Z@4HA 00000001800266d0     MSVCRTD:dll_dllmain.obj
 0003:000026d8       $unwind$?dllmain_crt_process_detach@@YAH_N@Z 00000001800266d8     MSVCRTD:dll_dllmain.obj
 0003:0000270c       $unwind$?fin$0@?0??dllmain_crt_process_detach@@YAH_N@Z@4HA 000000018002670c     MSVCRTD:dll_dllmain.obj
 0003:00002714       $unwind$?fin$1@?0??dllmain_crt_process_detach@@YAH_N@Z@4HA 0000000180026714     MSVCRTD:dll_dllmain.obj
 0003:0000271c       $unwind$?dllmain_crt_dispatch@@YAHQEAUHINSTANCE__@@KQEAX@Z 000000018002671c     MSVCRTD:dll_dllmain.obj
 0003:00002724       $unwind$_CRT_INIT          0000000180026724     MSVCRTD:dll_dllmain.obj
 0003:0000272c       $unwind$?dllmain_raw@@YAHQEAUHINSTANCE__@@KQEAX@Z 000000018002672c     MSVCRTD:dll_dllmain.obj
 0003:00002734       $unwind$?dllmain_dispatch@@YAHQEAUHINSTANCE__@@KQEAX@Z 0000000180026734     MSVCRTD:dll_dllmain.obj
 0003:00002758       $unwind$?filt$0@?0??dllmain_dispatch@@YAHQEAUHINSTANCE__@@KQEAX@Z@4HA 0000000180026758     MSVCRTD:dll_dllmain.obj
 0003:00002760       $unwind$_DllMainCRTStartup 0000000180026760     MSVCRTD:dll_dllmain.obj
 0003:00002768       $unwind$__report_securityfailure 0000000180026768     MSVCRTD:gs_report.obj
 0003:00002770       $unwind$__report_securityfailureEx 0000000180026770     MSVCRTD:gs_report.obj
 0003:00002778       $unwind$__report_rangecheckfailure 0000000180026778     MSVCRTD:gs_report.obj
 0003:00002780       $unwind$__report_gsfailure 0000000180026780     MSVCRTD:gs_report.obj
 0003:00002788       $unwind$capture_current_context 0000000180026788     MSVCRTD:gs_report.obj
 0003:00002790       $unwind$capture_previous_context 0000000180026790     MSVCRTD:gs_report.obj
 0003:00002798       $unwind$__raise_securityfailure 0000000180026798     MSVCRTD:gs_report.obj
 0003:000027a0       $unwind$__security_init_cookie 00000001800267a0     MSVCRTD:gs_support.obj
 0003:000027a8       $unwind$__get_entropy      00000001800267a8     MSVCRTD:gs_support.obj
 0003:000027b0       $unwind$DllMain            00000001800267b0     MSVCRTD:dll_dllmain_stub.obj
 0003:000027b8       $unwind$?__scrt_initialize_type_info@@YAXXZ 00000001800267b8     MSVCRTD:tncleanup.obj
 0003:000027c0       $unwind$?__scrt_uninitialize_type_info@@YAXXZ 00000001800267c0     MSVCRTD:tncleanup.obj
 0003:000027c8       $unwind$__scrt_initialize_default_local_stdio_options 00000001800267c8     MSVCRTD:default_local_stdio_options.obj
 0003:000027d0       $unwind$atexit             00000001800267d0     MSVCRTD:utility.obj
 0003:000027d8       $unwind$_onexit            00000001800267d8     MSVCRTD:utility.obj
 0003:000027e0       $unwind$at_quick_exit      00000001800267e0     MSVCRTD:utility.obj
 0003:000027e8       $unwind$__scrt_is_nonwritable_in_current_image 00000001800267e8     MSVCRTD:utility.obj
 0003:0000280c       $unwind$__scrt_is_nonwritable_in_current_image$filt$0 000000018002680c     MSVCRTD:utility.obj
 0003:00002814       $unwind$__scrt_acquire_startup_lock 0000000180026814     MSVCRTD:utility.obj
 0003:0000281c       $unwind$__scrt_release_startup_lock 000000018002681c     MSVCRTD:utility.obj
 0003:00002824       $unwind$__scrt_initialize_crt 0000000180026824     MSVCRTD:utility.obj
 0003:0000282c       $unwind$__scrt_uninitialize_crt 000000018002682c     MSVCRTD:utility.obj
 0003:00002834       $unwind$__scrt_initialize_onexit_tables 0000000180026834     MSVCRTD:utility.obj
 0003:00002844       $unwind$__scrt_dllmain_exception_filter 0000000180026844     MSVCRTD:utility.obj
 0003:0000284c       $unwind$__scrt_dllmain_before_initialize_c 000000018002684c     MSVCRTD:utility.obj
 0003:00002854       $unwind$__scrt_dllmain_after_initialize_c 0000000180026854     MSVCRTD:utility.obj
 0003:0000285c       $unwind$__scrt_dllmain_uninitialize_c 000000018002685c     MSVCRTD:utility.obj
 0003:00002864       $unwind$__scrt_dllmain_uninitialize_critical 0000000180026864     MSVCRTD:utility.obj
 0003:0000286c       $unwind$__scrt_dllmain_crt_thread_attach 000000018002686c     MSVCRTD:utility.obj
 0003:00002874       $unwind$__scrt_dllmain_crt_thread_detach 0000000180026874     MSVCRTD:utility.obj
 0003:0000287c       $unwind$?configure_argv@__scrt_narrow_argv_policy@@SAHXZ 000000018002687c     MSVCRTD:utility.obj
 0003:00002884       $unwind$?initialize_environment@__scrt_narrow_environment_policy@@SAHXZ 0000000180026884     MSVCRTD:utility.obj
 0003:0000288c       $unwind$?is_potentially_valid_image_base@@YA_NQEAX@Z 000000018002688c     MSVCRTD:utility.obj
 0003:00002894       $unwind$?find_pe_section@@YAPEAU_IMAGE_SECTION_HEADER@@QEAE_K@Z 0000000180026894     MSVCRTD:utility.obj
 0003:0000289c       $unwind$__scrt_get_show_window_mode 000000018002689c     MSVCRTD:utility_desktop.obj
 0003:000028ac       $unwind$__scrt_is_managed_app 00000001800268ac     MSVCRTD:utility_desktop.obj
 0003:000028b4       $unwind$__scrt_initialize_mta 00000001800268b4     MSVCRTD:utility_desktop.obj
 0003:000028bc       $unwind$__scrt_set_unhandled_exception_filter 00000001800268bc     MSVCRTD:utility_desktop.obj
 0003:000028c4       $unwind$__scrt_fastfail    00000001800268c4     MSVCRTD:utility_desktop.obj
 0003:000028d4       $unwind$__scrt_unhandled_exception_filter 00000001800268d4     MSVCRTD:utility_desktop.obj
 0003:000028dc       $unwind$_RTC_Initialize    00000001800268dc     MSVCRTD:initsect.obj
 0003:000028ec       $unwind$_RTC_Terminate     00000001800268ec     MSVCRTD:initsect.obj
 0003:000028fc       $unwind$ReadNoFence64      00000001800268fc     MSVCRTD:guard_support.obj
 0003:00002904       $unwind$ReadPointerNoFence 0000000180026904     MSVCRTD:guard_support.obj
 0003:0000290c       $unwind$_guard_icall_checks_enforced 000000018002690c     MSVCRTD:guard_support.obj
 0003:00002914       $unwind$__castguard_compat_check 0000000180026914     MSVCRTD:guard_support.obj
 0003:0000291c       $unwind$__castguard_check_failure_debugbreak 000000018002691c     MSVCRTD:guard_support.obj
 0003:00002924       $unwind$__castguard_check_failure_fastfail 0000000180026924     MSVCRTD:guard_support.obj
 0003:0000292c       $unwind$__castguard_check_failure_os_handled 000000018002692c     MSVCRTD:guard_support.obj
 0003:00002934       $unwind$__castguard_slow_path_compat_check 0000000180026934     MSVCRTD:guard_support.obj
 0003:0000293c       $unwind$__castguard_slow_path_check_debugbreak 000000018002693c     MSVCRTD:guard_support.obj
 0003:00002944       $unwind$__castguard_slow_path_check_fastfail 0000000180026944     MSVCRTD:guard_support.obj
 0003:0000294c       $unwind$__castguard_slow_path_check_os_handled 000000018002694c     MSVCRTD:guard_support.obj
 0003:00002954       $unwind$__isa_available_init 0000000180026954     MSVCRTD:cpu_disp.obj
 0003:00002968       $unwind$__scrt_is_ucrt_dll_in_use 0000000180026968     MSVCRTD:ucrt_detection.obj
 0003:00002970       $xdatasym                  0000000180026970     MSVCRTD:guard_dispatch.obj
 0003:00002978       $xdatasym                  0000000180026978     MSVCRTD:guard_xfg_dispatch.obj
 0003:0000297c       $unwind$?RectCenterDim@@YA?AUrectangle2@@Tv2@@0@Z 000000018002697c     p5engine.obj
 0003:0000298c       $unwind$?PushRectOutline@@YAXPEAUrender_group@@Tv2@@M1Tv4@@M@Z 000000018002698c     p5engine.obj
 0003:000029b8       $chain$8$?RenderGroupToOutput@@YAXPEAUrender_group@@PEAUloaded_bitmap@@@Z 00000001800269b8     p5engine.obj
 0003:000029ec       $chain$3$?DEBUGLoadBMP@@YA?AUloaded_bitmap@@PEAUthread_context@@P6A?AUdebug_read_file_result@@0PEAD@Z1@Z 00000001800269ec     p5engine.obj
 0003:00002a0c       $chain$6$?DrawHitpoints@@YAXPEAUsim_entity@@PEAUrender_group@@@Z 0000000180026a0c     p5engine.obj
 0003:00002a38       $unwind$?FillGroundChunk@@YAXPEAUtransient_state@@PEAUgame_state@@PEAUground_buffer@@PEAUworld_position@@@Z 0000000180026a38     p5engine.obj
 0003:00002a80       $unwind$GameUpdateAndRender 0000000180026a80     p5engine.obj
 0003:00002c20       .edata                     0000000180026c20     P5Engine.exp
 0003:00002c48       rgpv                       0000000180026c48     P5Engine.exp
 0003:00002c50       rgszName                   0000000180026c50     P5Engine.exp
 0003:00002c58       rgwOrd                     0000000180026c58     P5Engine.exp
 0003:00002c5c       szName                     0000000180026c5c     P5Engine.exp
 0003:00002c69       $N00001                    0000000180026c69     P5Engine.exp
 0003:00002c7d       $N00002                    0000000180026c7d     P5Engine.exp
 0004:00000000       ?RandomNumberTable@@3PAIA  0000000180027000     p5engine.obj
 0004:00004e20       ?__proc_attached@@3HA      000000018002be20     MSVCRTD:dll_dllmain.obj
 0004:00004e30       GS_ExceptionRecord         000000018002be30     MSVCRTD:gs_report.obj
 0004:00004ed0       GS_ContextRecord           000000018002bed0     MSVCRTD:gs_report.obj
 0004:00005508       ?is_initialized_as_dll@@3_NA 000000018002c508     MSVCRTD:utility.obj
 0004:00005509       ?module_local_atexit_table_initialized@@3_NA 000000018002c509     MSVCRTD:utility.obj
 0004:00005510       ?module_local_atexit_table@@3U_onexit_table_t@@A 000000018002c510     MSVCRTD:utility.obj
 0004:00005528       ?module_local_at_quick_exit_table@@3U_onexit_table_t@@A 000000018002c528     MSVCRTD:utility.obj
 0006:000005c6       .idata$6                   00000001800305c6     vcruntimed:VCRUNTIME140D.dll
 0006:000006fe       .idata$6                   00000001800306fe     ucrtd:ucrtbased.dll
 0006:00000898       .idata$6                   0000000180030898     kernel32:KERNEL32.dll
 0007:00000000       __7D4BEAAE_p5engine_platform@h 0000000180031000     p5engine.obj
 0007:00000001       __741AE07E_corecrt_math@h  0000000180031001     p5engine.obj
 0007:00000002       __20BB4341_malloc@h        0000000180031002     p5engine.obj
 0007:00000003       __7BF3FA8A_p5engine_intrinsics@h 0000000180031003     p5engine.obj
 0007:00000004       __87290AA6_p5engine_math@h 0000000180031004     p5engine.obj
 0007:00000005       __F17FF173_p5engine_entity@h 0000000180031005     p5engine.obj
 0007:00000006       __BD87FD4A_p5engine@h      0000000180031006     p5engine.obj
 0007:00000007       __6F2BF339_p5engine_render_group@cpp 0000000180031007     p5engine.obj
 0007:00000008       __281AC6F8_p5engine_world@cpp 0000000180031008     p5engine.obj
 0007:00000009       __B07C4A52_p5engine_sim_region@cpp 0000000180031009     p5engine.obj
 0007:0000000a       __BDC7FEEB_p5engine_entity@cpp 000000018003100a     p5engine.obj
 0007:0000000b       __B7A387D6_p5engine_random@h 000000018003100b     p5engine.obj
 0007:0000000c       __BAF57382_p5engine@cpp    000000018003100c     p5engine.obj
 0009:00000170       $R000000                   0000000180033170     * linker generated manifest res *
