 P5Engine

 Timestamp is 6343b216 (Mon Oct 10 00:48:06 2022)

 Preferred load address is 0000000180000000

 Start         Length     Name                   Class
 0001:00000000 000151d0H .text$mn                CODE
 0001:000151d0 00000040H .text$mn$00             CODE
 0001:00015210 000000ddH .text$x                 CODE
 0002:00000000 00000100H .idata$5                DATA
 0002:00000100 00000028H .00cfg                  DATA
 0002:00000128 00000008H .CRT$XCA                DATA
 0002:00000130 00000008H .CRT$XCZ                DATA
 0002:00000138 00000008H .CRT$XIA                DATA
 0002:00000140 00000008H .CRT$XIZ                DATA
 0002:00000148 00000008H .CRT$XPA                DATA
 0002:00000150 00000008H .CRT$XPZ                DATA
 0002:00000158 00000008H .CRT$XTA                DATA
 0002:00000160 00000010H .CRT$XTZ                DATA
 0002:00000168 00000000H .gehcont$y              DATA
 0002:00000168 00000000H .gfids$y                DATA
 0002:00000170 00000410H .rdata                  DATA
 0002:00000580 00000000H .rdata$CastGuardVftablesA DATA
 0002:00000580 00000000H .rdata$CastGuardVftablesC DATA
 0002:00000580 00000174H .rdata$voltmd           DATA
 0002:000006f4 000002dcH .rdata$zzzdbg           DATA
 0002:000009d0 00000008H .rtc$IAA                DATA
 0002:000009d8 00000008H .rtc$IZZ                DATA
 0002:000009e0 00000008H .rtc$TAA                DATA
 0002:000009e8 00000008H .rtc$TZZ                DATA
 0002:000009f0 000007e0H .xdata                  DATA
 0002:000011d0 00000074H .edata                  DATA
 0002:00001244 0000003cH .idata$2                DATA
 0002:00001280 00000018H .idata$3                DATA
 0002:00001298 00000100H .idata$4                DATA
 0002:00001398 00000294H .idata$6                DATA
 0003:00000000 00004040H .data                   DATA
 0003:00004040 0000067cH .bss                    DATA
 0004:00000000 00000b4cH .pdata                  DATA
 0005:00000000 0000001cH .msvcjmc                DATA
 0006:00000000 00000060H .rsrc$01                DATA
 0006:00000060 00000098H .rsrc$02                DATA

  Address         Publics by Value              Rva+Base               Lib:Object

 0000:00000000       __guard_eh_cont_count      0000000000000000     <absolute>
 0000:00000000       __guard_longjmp_table      0000000000000000     <absolute>
 0000:00000000       __hybrid_auxiliary_iat     0000000000000000     <absolute>
 0000:00000000       __dynamic_value_reloc_table 0000000000000000     <absolute>
 0000:00000000       __AbsoluteZero             0000000000000000     <absolute>
 0000:00000000       __guard_longjmp_count      0000000000000000     <absolute>
 0000:00000000       __guard_iat_count          0000000000000000     <absolute>
 0000:00000000       ___safe_se_handler_count   0000000000000000     <absolute>
 0000:00000000       __hybrid_code_map_count    0000000000000000     <absolute>
 0000:00000000       __arm64x_extra_rfe_table_size 0000000000000000     <absolute>
 0000:00000000       __x64_code_ranges_to_entry_points 0000000000000000     <absolute>
 0000:00000000       __guard_check_icall_a64n_fptr 0000000000000000     <absolute>
 0000:00000000       __guard_fids_table         0000000000000000     <absolute>
 0000:00000000       __guard_iat_table          0000000000000000     <absolute>
 0000:00000000       __arm64x_redirection_metadata 0000000000000000     <absolute>
 0000:00000000       __hybrid_code_map          0000000000000000     <absolute>
 0000:00000000       __hybrid_auxiliary_iat_copy 0000000000000000     <absolute>
 0000:00000000       __arm64x_extra_rfe_table   0000000000000000     <absolute>
 0000:00000000       __x64_code_ranges_to_entry_points_count 0000000000000000     <absolute>
 0000:00000000       __arm64x_native_entrypoint 0000000000000000     <absolute>
 0000:00000000       ___safe_se_handler_table   0000000000000000     <absolute>
 0000:00000000       __arm64x_redirection_metadata_count 0000000000000000     <absolute>
 0000:00000000       __guard_eh_cont_table      0000000000000000     <absolute>
 0000:00000000       __enclave_config           0000000000000000     <absolute>
 0000:00000000       __guard_fids_count         0000000000000000     <absolute>
 0000:00000100       __guard_flags              0000000000000100     <absolute>
 0000:00000000       __ImageBase                0000000180000000     <linker-defined>
 0001:00009140       GameUpdateAndRender        000000018000a140 f   p5engine.obj
 0001:0000dca0       GameGetSoundSamples        000000018000eca0 f   p5engine.obj
 0001:0000dd10       ??D@YA?ATv2@@MT0@@Z        000000018000ed10 f i p5engine.obj
 0001:0000dd90       ??D@YA?ATv3@@MT0@@Z        000000018000ed90 f i p5engine.obj
 0001:0000de40       ??D@YA?ATv3@@T0@M@Z        000000018000ee40 f i p5engine.obj
 0001:0000dec0       ??D@YA?ATv4@@MT0@@Z        000000018000eec0 f i p5engine.obj
 0001:0000df90       ??G@YA?ATv2@@T0@0@Z        000000018000ef90 f i p5engine.obj
 0001:0000e010       ??G@YA?ATv3@@T0@0@Z        000000018000f010 f i p5engine.obj
 0001:0000e0d0       ??H@YA?ATv2@@T0@0@Z        000000018000f0d0 f i p5engine.obj
 0001:0000e150       ??H@YA?ATv3@@T0@0@Z        000000018000f150 f i p5engine.obj
 0001:0000e210       ??H@YA?ATv4@@T0@0@Z        000000018000f210 f i p5engine.obj
 0001:0000e2f0       ??X@YAAEATv3@@AEAT0@M@Z    000000018000f2f0 f i p5engine.obj
 0001:0000e370       ??Y@YAAEATv2@@AEAT0@T0@@Z  000000018000f370 f i p5engine.obj
 0001:0000e3c0       ??Y@YAAEATv3@@AEAT0@T0@@Z  000000018000f3c0 f i p5engine.obj
 0001:0000e460       ??Y@YAAEATv4@@AEAT0@T0@@Z  000000018000f460 f i p5engine.obj
 0001:0000e500       ??Z@YAAEATv3@@AEAT0@T0@@Z  000000018000f500 f i p5engine.obj
 0001:0000e5a0       ?ATan2@@YAMMM@Z            000000018000f5a0 f i p5engine.obj
 0001:0000e5f0       ?AbsoluteValue@@YAMM@Z     000000018000f5f0 f i p5engine.obj
 0001:0000e630       ?AddAssetHeaderToList@@YAXPEAUgame_assets@@IUasset_memory_size@@@Z 000000018000f630 f i p5engine.obj
 0001:0000e6a0       ?AddFlags@@YAXPEAUsim_entity@@I@Z 000000018000f6a0 f i p5engine.obj
 0001:0000e6e0       ?AddRadiusTo@@YA?AUrectangle3@@U1@Tv3@@@Z 000000018000f6e0 f i p5engine.obj
 0001:0000e850       ?AllResourcesPresent@@YAHPEAUrender_group@@@Z 000000018000f850 f i p5engine.obj
 0001:0000e8a0       ?AreInSameChunk@@YAHPEAUworld@@PEAUworld_position@@1@Z 000000018000f8a0 f i p5engine.obj
 0001:0000e9a0       ?AtomicCompareExchangeUInt32@@YAIPECIII@Z 000000018000f9a0 f i p5engine.obj
 0001:0000e9f0       ?BeginTemporaryMemory@@YA?AUtemporary_memory@@PEAUmemory_arena@@@Z 000000018000f9f0 f i p5engine.obj
 0001:0000ea90       ?CenteredChunkPoint@@YA?AUworld_position@@III@Z 000000018000fa90 f i p5engine.obj
 0001:0000eb20       ?ChangeEntityLocationRaw@@YAXPEAUmemory_arena@@PEAUworld@@IPEAUworld_position@@2@Z 000000018000fb20 f i p5engine.obj
 0001:0000ef10       ?CheckArena@@YAXPEAUmemory_arena@@@Z 000000018000ff10 f i p5engine.obj
 0001:0000ef40       ?ChunkPositionFromTilePosition@@YA?AUworld_position@@PEAUworld@@HHHTv3@@@Z 000000018000ff40 f i p5engine.obj
 0001:0000f1e0       ?Clamp01@@YA?ATv2@@T1@@Z   00000001800101e0 f i p5engine.obj
 0001:0000f250       ?Clamp01@@YAMM@Z           0000000180010250 f i p5engine.obj
 0001:0000f290       ?Clamp01MapToRange@@YAMMMM@Z 0000000180010290 f i p5engine.obj
 0001:0000f310       ?Clamp@@YAMMMM@Z           0000000180010310 f i p5engine.obj
 0001:0000f380       ?Clear@@YAXPEAUrender_group@@Tv4@@@Z 0000000180010380 f i p5engine.obj
 0001:0000f3e0       ?ClearFlags@@YAXPEAUsim_entity@@I@Z 00000001800103e0 f i p5engine.obj
 0001:0000f420       ?DefaultMoveSpec@@YA?AUmove_spec@@XZ 0000000180010420 f i p5engine.obj
 0001:0000f4c0       ?EndTemporaryMemory@@YAXUtemporary_memory@@@Z 00000001800104c0 f i p5engine.obj
 0001:0000f540       ?EntityOverlapsRectangle@@YAHTv3@@Usim_entity_collision_volume@@Urectangle3@@@Z 0000000180010540 f i p5engine.obj
 0001:0000f6d0       ?GetAlignmentOffset@@YA_KPEAUmemory_arena@@_K@Z 00000001800106d0 f i p5engine.obj
 0001:0000f760       ?GetArenaSizeRemaining@@YA_KPEAUmemory_arena@@_K@Z 0000000180010760 f i p5engine.obj
 0001:0000f7c0       ?GetBarycentric@@YA?ATv2@@Urectangle2@@T1@@Z 00000001800107c0 f i p5engine.obj
 0001:0000f870       ?GetBitmap@@YAPEAUloaded_bitmap@@PEAUgame_assets@@Ubitmap_id@@H@Z 0000000180010870 f i p5engine.obj
 0001:0000f930       ?GetCameraRectangleAtDistance@@YA?AUrectangle2@@PEAUrender_group@@M@Z 0000000180010930 f i p5engine.obj
 0001:0000f9d0       ?GetCameraRectangleAtTarget@@YA?AUrectangle2@@PEAUrender_group@@@Z 00000001800109d0 f i p5engine.obj
 0001:0000fa40       ?GetDim@@YA?ATv2@@Urectangle2@@@Z 0000000180010a40 f i p5engine.obj
 0001:0000fa80       ?GetDim@@YA?ATv3@@Urectangle3@@@Z 0000000180010a80 f i p5engine.obj
 0001:0000fb20       ?GetEntityGroundPoint@@YA?ATv3@@PEAUsim_entity@@@Z 0000000180010b20 f i p5engine.obj
 0001:0000fba0       ?GetEntityGroundPoint@@YA?ATv3@@PEAUsim_entity@@T1@@Z 0000000180010ba0 f i p5engine.obj
 0001:0000fc00       ?GetFileHandleFor@@YAPEAUplatform_file_handle@@PEAUgame_assets@@I@Z 0000000180010c00 f i p5engine.obj
 0001:0000fc60       ?GetLowEntity@@YAPEAUlow_entity@@PEAUgame_state@@I@Z 0000000180010c60 f i p5engine.obj
 0001:0000fcd0       ?GetMaxCorner@@YA?ATv3@@Urectangle3@@@Z 0000000180010cd0 f i p5engine.obj
 0001:0000fd30       ?GetMinCorner@@YA?ATv3@@Urectangle3@@@Z 0000000180010d30 f i p5engine.obj
 0001:0000fd80       ?GetNextSoundInChain@@YA?AUsound_id@@PEAUgame_assets@@U1@@Z 0000000180010d80 f i p5engine.obj
 0001:0000fe40       ?GetRenderEntityBasisPos@@YA?AUentity_basis_p_result@@PEAUrender_transform@@Tv3@@@Z 0000000180010e40 f i p5engine.obj
 0001:000100e0       ?GetSimSpacePos@@YA?ATv3@@PEAUsim_region@@PEAUlow_entity@@@Z 00000001800110e0 f i p5engine.obj
 0001:000101d0       ?GetSound@@YAPEAUloaded_sound@@PEAUgame_assets@@Usound_id@@@Z 00000001800111d0 f i p5engine.obj
 0001:00010270       ?GetSoundInfo@@YAPEAUp5a_sound@@PEAUgame_assets@@Usound_id@@@Z 0000000180011270 f i p5engine.obj
 0001:000102d0       ?GetStairGround@@YAMPEAUsim_entity@@Tv3@@@Z 00000001800112d0 f i p5engine.obj
 0001:000103c0       ?GetState@@YAIPEAUasset@@@Z 00000001800113c0 f i p5engine.obj
 0001:000103f0       ?GetWorldChunk@@YAPEAUworld_chunk@@PEAUworld@@HHHPEAUmemory_arena@@@Z 00000001800113f0 f i p5engine.obj
 0001:000105e0       ?Hadamard@@YA?ATv2@@T1@0@Z 00000001800115e0 f i p5engine.obj
 0001:00010640       ?Hadamard@@YA?ATv3@@T1@0@Z 0000000180011640 f i p5engine.obj
 0001:00010700       ?HasFlag@@YAHPEAUsim_entity@@I@Z 0000000180011700 f i p5engine.obj
 0001:00010740       ?InitializeArena@@YAXPEAUmemory_arena@@_KPEAX@Z 0000000180011740 f i p5engine.obj
 0001:000107a0       ?Inner@@YAMTv2@@0@Z        00000001800117a0 f i p5engine.obj
 0001:000107f0       ?Inner@@YAMTv3@@0@Z        00000001800117f0 f i p5engine.obj
 0001:00010860       ?InsertAssetHeaderAtFront@@YAXPEAUgame_assets@@PEAUasset_memory_header@@@Z 0000000180011860 f i p5engine.obj
 0001:000108d0       ?Intersect@@YA?AUrectangle2i@@U1@0@Z 00000001800118d0 f i p5engine.obj
 0001:000109e0       ?IsCanonical@@YAHMM@Z      00000001800119e0 f i p5engine.obj
 0001:00010a80       ?IsCanonical@@YAHPEAUworld@@Tv3@@@Z 0000000180011a80 f i p5engine.obj
 0001:00010b20       ?IsInRectangle@@YAHUrectangle3@@Tv3@@@Z 0000000180011b20 f i p5engine.obj
 0001:00010be0       ?IsLocked@@YAHPEAUasset@@@Z 0000000180011be0 f i p5engine.obj
 0001:00010c10       ?IsValid@@YAHUsound_id@@@Z 0000000180011c10 f i p5engine.obj
 0001:00010c50       ?IsValid@@YAHUworld_position@@@Z 0000000180011c50 f i p5engine.obj
 0001:00010ca0       ?Length@@YAMTv3@@@Z        0000000180011ca0 f i p5engine.obj
 0001:00010cf0       ?LengthSq@@YAMTv2@@@Z      0000000180011cf0 f i p5engine.obj
 0001:00010d30       ?LengthSq@@YAMTv3@@@Z      0000000180011d30 f i p5engine.obj
 0001:00010da0       ?Lerp@@YAMMMM@Z            0000000180011da0 f i p5engine.obj
 0001:00010e00       ?LoadEntityReference@@YAXPEAUgame_state@@PEAUsim_region@@PEATentity_reference@@@Z 0000000180011e00 f i p5engine.obj
 0001:00010f30       ?MakeEntityNonSpatial@@YAXPEAUsim_entity@@@Z 0000000180011f30 f i p5engine.obj
 0001:00010fb0       ?MakeEntitySpatial@@YAXPEAUsim_entity@@Tv3@@1@Z 0000000180011fb0 f i p5engine.obj
 0001:00011020       ?MapIntoChunkSpace@@YA?AUworld_position@@PEAUworld@@U1@Tv3@@@Z 0000000180012020 f i p5engine.obj
 0001:00011110       ?NullPosition@@YA?AUworld_position@@XZ 0000000180012110 f i p5engine.obj
 0001:00011180       ?Orthographic@@YAXPEAUrender_group@@HHM@Z 0000000180012180 f i p5engine.obj
 0001:00011280       ?Perspective@@YAXPEAUrender_group@@HHMMM@Z 0000000180012280 f i p5engine.obj
 0001:00011370       ?PrefetchSound@@YAXPEAUgame_assets@@Usound_id@@@Z 0000000180012370 f i p5engine.obj
 0001:000113a0       ?PushBitmap@@YAXPEAUrender_group@@PEAUloaded_bitmap@@Tv3@@MTv4@@@Z 00000001800123a0 f i p5engine.obj
 0001:000115d0       ?PushBitmap@@YAXPEAUrender_group@@Ubitmap_id@@Tv3@@MTv4@@@Z 00000001800125d0 f i p5engine.obj
 0001:000116d0       ?PushRect@@YAXPEAUrender_group@@Tv3@@Tv2@@Tv4@@@Z 00000001800126d0 f i p5engine.obj
 0001:00011870       ?PushRectOutline@@YAXPEAUrender_group@@Tv3@@Tv2@@Tv4@@@Z 0000000180012870 f i p5engine.obj
 0001:00011d00       ?PushRenderElement_@@YAPEAXPEAUrender_group@@IW4render_group_entry_type@@@Z 0000000180012d00 f i p5engine.obj
 0001:00011db0       ?PushSize_@@YAPEAXPEAUmemory_arena@@_K1@Z 0000000180012db0 f i p5engine.obj
 0001:00011e80       ?RandomBetween@@YAMPEAUrandom_series@@MM@Z 0000000180012e80 f i p5engine.obj
 0001:00011ed0       ?RandomBilateral@@YAMPEAUrandom_series@@@Z 0000000180012ed0 f i p5engine.obj
 0001:00011f20       ?RandomChoice@@YAIPEAUrandom_series@@I@Z 0000000180012f20 f i p5engine.obj
 0001:00011f60       ?RandomNextUInt32@@YAIPEAUrandom_series@@@Z 0000000180012f60 f i p5engine.obj
 0001:00011fd0       ?RandomSeed@@YA?AUrandom_series@@I@Z 0000000180012fd0 f i p5engine.obj
 0001:00012040       ?RandomUnilateral@@YAMPEAUrandom_series@@@Z 0000000180013040 f i p5engine.obj
 0001:000120a0       ?RecanonicalizeCoord@@YAXMPEAHPEAM@Z 00000001800130a0 f i p5engine.obj
 0001:00012140       ?RectCenterDim@@YA?AUrectangle2@@Tv2@@0@Z 0000000180013140 f i p5engine.obj
 0001:000121d0       ?RectCenterDim@@YA?AUrectangle3@@Tv3@@0@Z 00000001800131d0 f i p5engine.obj
 0001:000122c0       ?RectCenterHalfDim@@YA?AUrectangle2@@Tv2@@0@Z 00000001800132c0 f i p5engine.obj
 0001:00012370       ?RectCenterHalfDim@@YA?AUrectangle3@@Tv3@@0@Z 0000000180013370 f i p5engine.obj
 0001:000124e0       ?RectMinMax@@YA?AUrectangle3@@Tv3@@0@Z 00000001800134e0 f i p5engine.obj
 0001:00012580       ?RectanglesIntersect@@YAHUrectangle3@@0@Z 0000000180013580 f i p5engine.obj
 0001:00012640       ?RemoveAssetHeaderFromList@@YAXPEAUasset_memory_header@@@Z 0000000180013640 f i p5engine.obj
 0001:000126a0       ?RoundReal32ToInt32@@YAHM@Z 00000001800136a0 f i p5engine.obj
 0001:000126e0       ?RoundReal32ToUInt32@@YAIM@Z 00000001800136e0 f i p5engine.obj
 0001:00012720       ?SafeRatio1@@YAMMM@Z       0000000180013720 f i p5engine.obj
 0001:00012770       ?SafeRatioN@@YAMMMM@Z      0000000180013770 f i p5engine.obj
 0001:000127d0       ?SignOf@@YAMM@Z            00000001800137d0 f i p5engine.obj
 0001:00012830       ?Sin@@YAMM@Z               0000000180013830 f i p5engine.obj
 0001:00012870       ?Square@@YAMM@Z            0000000180013870 f i p5engine.obj
 0001:000128b0       ?SquareRoot@@YAMM@Z        00000001800138b0 f i p5engine.obj
 0001:000128f0       ?StoreEntityReference@@YAXPEATentity_reference@@@Z 00000001800138f0 f i p5engine.obj
 0001:00012930       ?SubArena@@YAXPEAUmemory_arena@@0_K1@Z 0000000180013930 f i p5engine.obj
 0001:000129a0       ?ToV3@@YA?ATv3@@Tv2@@M@Z   00000001800139a0 f i p5engine.obj
 0001:00012a30       ?TruncateReal32ToInt32@@YAHM@Z 0000000180013a30 f i p5engine.obj
 0001:00012a60       ?Unproject@@YA?ATv2@@PEAUrender_group@@T1@M@Z 0000000180013a60 f i p5engine.obj
 0001:00012ab0       ?V2@@YA?ATv2@@MM@Z         0000000180013ab0 f i p5engine.obj
 0001:00012b20       ?V2i@@YA?ATv2@@HH@Z        0000000180013b20 f i p5engine.obj
 0001:00012b70       ?V3@@YA?ATv3@@MMM@Z        0000000180013b70 f i p5engine.obj
 0001:00012c10       ?V4@@YA?ATv4@@MMMM@Z       0000000180013c10 f i p5engine.obj
 0001:00012cc0       ?ZeroSize@@YAX_KPEAX@Z     0000000180013cc0 f i p5engine.obj
 0001:00012d20       GetController              0000000180013d20 f i p5engine.obj
 0001:00012d80       ?DrawRectangleQuickly@@YAXPEAUloaded_bitmap@@Tv2@@11Tv4@@0MUrectangle2i@@H@Z 0000000180013d80 f   p5engine_optimized.obj
 0001:00013ac0       __CheckForDebuggerJustMyCode 0000000180014ac0 f   MSVCRTD:debugger_jmc.obj
 0001:00013b00       __GSHandlerCheck           0000000180014b00 f   MSVCRTD:gshandler.obj
 0001:00013b40       __GSHandlerCheckCommon     0000000180014b40 f   MSVCRTD:gshandler.obj
 0001:00013c50       __chkstk                   0000000180014c50 f   MSVCRTD:chkstk.obj
 0001:00013c50       _alloca_probe              0000000180014c50 f   MSVCRTD:chkstk.obj
 0001:00013cb0       __security_check_cookie    0000000180014cb0 f   MSVCRTD:amdsecgs.obj
 0001:000140e0       _DllMainCRTStartup         00000001800150e0 f   MSVCRTD:dll_dllmain.obj
 0001:00014120       __raise_securityfailure    0000000180015120 f   MSVCRTD:gs_report.obj
 0001:00014160       __report_gsfailure         0000000180015160 f   MSVCRTD:gs_report.obj
 0001:000143c0       __security_init_cookie     00000001800153c0 f   MSVCRTD:gs_support.obj
 0001:00014440       DllMain                    0000000180015440 f   MSVCRTD:dll_dllmain_stub.obj
 0001:00014480       ?__scrt_initialize_type_info@@YAXXZ 0000000180015480 f   MSVCRTD:tncleanup.obj
 0001:000144a0       ?__scrt_uninitialize_type_info@@YAXXZ 00000001800154a0 f   MSVCRTD:tncleanup.obj
 0001:000144c0       __local_stdio_printf_options 00000001800154c0 f i MSVCRTD:default_local_stdio_options.obj
 0001:000144d0       __local_stdio_scanf_options 00000001800154d0 f i MSVCRTD:default_local_stdio_options.obj
 0001:000144e0       __scrt_initialize_default_local_stdio_options 00000001800154e0 f   MSVCRTD:default_local_stdio_options.obj
 0001:00014530       ?configure_argv@__scrt_narrow_argv_policy@@SAHXZ 0000000180015530 f i MSVCRTD:utility.obj
 0001:00014620       ?initialize_environment@__scrt_narrow_environment_policy@@SAHXZ 0000000180015620 f i MSVCRTD:utility.obj
 0001:000146c0       NtCurrentTeb               00000001800156c0 f i MSVCRTD:utility.obj
 0001:000146d0       __scrt_acquire_startup_lock 00000001800156d0 f   MSVCRTD:utility.obj
 0001:00014740       __scrt_dllmain_after_initialize_c 0000000180015740 f   MSVCRTD:utility.obj
 0001:00014770       __scrt_dllmain_before_initialize_c 0000000180015770 f   MSVCRTD:utility.obj
 0001:00014790       __scrt_dllmain_crt_thread_attach 0000000180015790 f   MSVCRTD:utility.obj
 0001:000147c0       __scrt_dllmain_crt_thread_detach 00000001800157c0 f   MSVCRTD:utility.obj
 0001:000147e0       __scrt_dllmain_exception_filter 00000001800157e0 f   MSVCRTD:utility.obj
 0001:00014850       __scrt_dllmain_uninitialize_c 0000000180015850 f   MSVCRTD:utility.obj
 0001:00014880       __scrt_dllmain_uninitialize_critical 0000000180015880 f   MSVCRTD:utility.obj
 0001:000148a0       __scrt_initialize_crt      00000001800158a0 f   MSVCRTD:utility.obj
 0001:000148f0       __scrt_initialize_onexit_tables 00000001800158f0 f   MSVCRTD:utility.obj
 0001:00014a00       __scrt_is_nonwritable_in_current_image 0000000180015a00 f   MSVCRTD:utility.obj
 0001:00014a90       __scrt_release_startup_lock 0000000180015a90 f   MSVCRTD:utility.obj
 0001:00014ac0       __scrt_uninitialize_crt    0000000180015ac0 f   MSVCRTD:utility.obj
 0001:00014b00       __scrt_get_dyn_tls_init_callback 0000000180015b00 f   MSVCRTD:dyn_tls_init.obj
 0001:00014b10       __crt_debugger_hook        0000000180015b10 f   MSVCRTD:utility_desktop.obj
 0001:00014b20       __scrt_fastfail            0000000180015b20 f   MSVCRTD:utility_desktop.obj
 0001:00014cc0       _RTC_Initialize            0000000180015cc0 f   MSVCRTD:initsect.obj
 0001:00014d10       _RTC_Terminate             0000000180015d10 f   MSVCRTD:initsect.obj
 0001:00014d60       _guard_check_icall_nop     0000000180015d60 f i MSVCRTD:guard_support.obj
 0001:00014d70       __isa_available_init       0000000180015d70 f   MSVCRTD:cpu_disp.obj
 0001:00015110       _get_startup_argv_mode     0000000180016110 f   MSVCRTD:argv_mode.obj
 0001:00015120       __scrt_is_ucrt_dll_in_use  0000000180016120 f   MSVCRTD:ucrt_detection.obj
 0001:00015150       __C_specific_handler       0000000180016150 f   vcruntimed:VCRUNTIME140D.dll
 0001:00015156       __std_type_info_destroy_list 0000000180016156 f   vcruntimed:VCRUNTIME140D.dll
 0001:0001515c       atan2                      000000018001615c f   ucrtd:ucrtbased.dll
 0001:00015162       sinf                       0000000180016162 f   ucrtd:ucrtbased.dll
 0001:00015168       sqrtf                      0000000180016168 f   ucrtd:ucrtbased.dll
 0001:0001516e       _initterm                  000000018001616e f   ucrtd:ucrtbased.dll
 0001:00015174       _initterm_e                0000000180016174 f   ucrtd:ucrtbased.dll
 0001:0001517a       _seh_filter_dll            000000018001617a f   ucrtd:ucrtbased.dll
 0001:00015180       _configure_narrow_argv     0000000180016180 f   ucrtd:ucrtbased.dll
 0001:00015186       _initialize_narrow_environment 0000000180016186 f   ucrtd:ucrtbased.dll
 0001:0001518c       _initialize_onexit_table   000000018001618c f   ucrtd:ucrtbased.dll
 0001:00015192       _execute_onexit_table      0000000180016192 f   ucrtd:ucrtbased.dll
 0001:00015198       _cexit                     0000000180016198 f   ucrtd:ucrtbased.dll
 0001:000151a0       __acrt_initialize          00000001800161a0 f   MSVCRTD:ucrt_stubs.obj
 0001:000151a0       __scrt_stub_for_acrt_initialize 00000001800161a0 f   MSVCRTD:ucrt_stubs.obj
 0001:000151a0       __acrt_thread_detach       00000001800161a0 f   MSVCRTD:ucrt_stubs.obj
 0001:000151a0       __vcrt_thread_detach       00000001800161a0 f   MSVCRTD:ucrt_stubs.obj
 0001:000151a0       __scrt_stub_for_acrt_thread_detach 00000001800161a0 f   MSVCRTD:ucrt_stubs.obj
 0001:000151a0       __acrt_thread_attach       00000001800161a0 f   MSVCRTD:ucrt_stubs.obj
 0001:000151a0       __vcrt_thread_attach       00000001800161a0 f   MSVCRTD:ucrt_stubs.obj
 0001:000151a0       __scrt_stub_for_acrt_thread_attach 00000001800161a0 f   MSVCRTD:ucrt_stubs.obj
 0001:000151a0       __vcrt_initialize          00000001800161a0 f   MSVCRTD:ucrt_stubs.obj
 0001:000151b0       __vcrt_uninitialize_critical 00000001800161b0 f   MSVCRTD:ucrt_stubs.obj
 0001:000151b0       __acrt_uninitialize        00000001800161b0 f   MSVCRTD:ucrt_stubs.obj
 0001:000151b0       __vcrt_uninitialize        00000001800161b0 f   MSVCRTD:ucrt_stubs.obj
 0001:000151b0       __scrt_stub_for_acrt_uninitialize 00000001800161b0 f   MSVCRTD:ucrt_stubs.obj
 0001:000151b0       __acrt_uninitialize_critical 00000001800161b0 f   MSVCRTD:ucrt_stubs.obj
 0001:000151b0       __scrt_stub_for_acrt_uninitialize_critical 00000001800161b0 f   MSVCRTD:ucrt_stubs.obj
 0001:000151c0       __scrt_stub_for_is_c_termination_complete 00000001800161c0 f   MSVCRTD:ucrt_stubs.obj
 0001:000151c0       _is_c_termination_complete 00000001800161c0 f   MSVCRTD:ucrt_stubs.obj
 0001:000151e0       _guard_dispatch_icall_nop  00000001800161e0 f   MSVCRTD:guard_dispatch.obj
 0001:00015200       _guard_xfg_dispatch_icall_nop 0000000180016200 f   MSVCRTD:guard_xfg_dispatch.obj
 0002:00000000       __imp_QueryPerformanceCounter 0000000180017000     kernel32:KERNEL32.dll
 0002:00000008       __imp_RtlCaptureContext    0000000180017008     kernel32:KERNEL32.dll
 0002:00000010       __imp_RtlLookupFunctionEntry 0000000180017010     kernel32:KERNEL32.dll
 0002:00000018       __imp_RtlVirtualUnwind     0000000180017018     kernel32:KERNEL32.dll
 0002:00000020       __imp_IsDebuggerPresent    0000000180017020     kernel32:KERNEL32.dll
 0002:00000028       __imp_InitializeSListHead  0000000180017028     kernel32:KERNEL32.dll
 0002:00000030       __imp_DisableThreadLibraryCalls 0000000180017030     kernel32:KERNEL32.dll
 0002:00000038       __imp_GetSystemTimeAsFileTime 0000000180017038     kernel32:KERNEL32.dll
 0002:00000040       __imp_GetCurrentProcessId  0000000180017040     kernel32:KERNEL32.dll
 0002:00000048       __imp_GetCurrentThreadId   0000000180017048     kernel32:KERNEL32.dll
 0002:00000050       __imp_IsProcessorFeaturePresent 0000000180017050     kernel32:KERNEL32.dll
 0002:00000058       __imp_TerminateProcess     0000000180017058     kernel32:KERNEL32.dll
 0002:00000060       __imp_GetCurrentProcess    0000000180017060     kernel32:KERNEL32.dll
 0002:00000068       __imp_SetUnhandledExceptionFilter 0000000180017068     kernel32:KERNEL32.dll
 0002:00000070       __imp_UnhandledExceptionFilter 0000000180017070     kernel32:KERNEL32.dll
 0002:00000078       \177KERNEL32_NULL_THUNK_DATA 0000000180017078     kernel32:KERNEL32.dll
 0002:00000080       __imp___std_type_info_destroy_list 0000000180017080     vcruntimed:VCRUNTIME140D.dll
 0002:00000088       __imp___C_specific_handler 0000000180017088     vcruntimed:VCRUNTIME140D.dll
 0002:00000090       \177VCRUNTIME140D_NULL_THUNK_DATA 0000000180017090     vcruntimed:VCRUNTIME140D.dll
 0002:00000098       __imp__cexit               0000000180017098     ucrtd:ucrtbased.dll
 0002:000000a0       __imp__execute_onexit_table 00000001800170a0     ucrtd:ucrtbased.dll
 0002:000000a8       __imp__initialize_onexit_table 00000001800170a8     ucrtd:ucrtbased.dll
 0002:000000b0       __imp__initialize_narrow_environment 00000001800170b0     ucrtd:ucrtbased.dll
 0002:000000b8       __imp__configure_narrow_argv 00000001800170b8     ucrtd:ucrtbased.dll
 0002:000000c0       __imp__initterm_e          00000001800170c0     ucrtd:ucrtbased.dll
 0002:000000c8       __imp__initterm            00000001800170c8     ucrtd:ucrtbased.dll
 0002:000000d0       __imp_sqrtf                00000001800170d0     ucrtd:ucrtbased.dll
 0002:000000d8       __imp_sinf                 00000001800170d8     ucrtd:ucrtbased.dll
 0002:000000e0       __imp_atan2                00000001800170e0     ucrtd:ucrtbased.dll
 0002:000000e8       __imp_roundf               00000001800170e8     ucrtd:ucrtbased.dll
 0002:000000f0       __imp__seh_filter_dll      00000001800170f0     ucrtd:ucrtbased.dll
 0002:000000f8       \177ucrtbased_NULL_THUNK_DATA 00000001800170f8     ucrtd:ucrtbased.dll
 0002:00000100       __guard_check_icall_fptr   0000000180017100     MSVCRTD:guard_support.obj
 0002:00000108       __guard_xfg_check_icall_fptr 0000000180017108     MSVCRTD:guard_support.obj
 0002:00000110       __guard_dispatch_icall_fptr 0000000180017110     MSVCRTD:guard_support.obj
 0002:00000118       __guard_xfg_dispatch_icall_fptr 0000000180017118     MSVCRTD:guard_support.obj
 0002:00000120       __guard_xfg_table_dispatch_icall_fptr 0000000180017120     MSVCRTD:guard_support.obj
 0002:00000128       __xc_a                     0000000180017128     MSVCRTD:initializers.obj
 0002:00000130       __xc_z                     0000000180017130     MSVCRTD:initializers.obj
 0002:00000138       __xi_a                     0000000180017138     MSVCRTD:initializers.obj
 0002:00000140       __xi_z                     0000000180017140     MSVCRTD:initializers.obj
 0002:00000148       __xp_a                     0000000180017148     MSVCRTD:initializers.obj
 0002:00000150       __xp_z                     0000000180017150     MSVCRTD:initializers.obj
 0002:00000158       __xt_a                     0000000180017158     MSVCRTD:initializers.obj
 0002:00000160       __xt_z                     0000000180017160     MSVCRTD:initializers.obj
 0002:00000200       ??_C@_0BA@NMEIMCEK@InvalidCodePath@ 0000000180017200     p5engine.obj
 0002:00000210       __real@00000000            0000000180017210     p5engine.obj
 0002:00000214       __real@308992b1            0000000180017214     p5engine.obj
 0002:00000218       __real@3a83126f            0000000180017218     p5engine.obj
 0002:0000021c       __real@3c23d70a            000000018001721c     p5engine.obj
 0002:00000220       __real@3cc30c31            0000000180017220     p5engine.obj
 0002:00000224       __real@3d4ccccd            0000000180017224     p5engine.obj
 0002:00000228       __real@3dcccccd            0000000180017228     p5engine.obj
 0002:0000022c       __real@3e4ccccd            000000018001722c     p5engine.obj
 0002:00000230       __real@3e800000            0000000180017230     p5engine.obj
 0002:00000234       __real@3e99999a            0000000180017234     p5engine.obj
 0002:00000238       __real@3ee147ae            0000000180017238     p5engine.obj
 0002:0000023c       __real@3f000000            000000018001723c     p5engine.obj
 0002:00000240       __real@3f19999a            0000000180017240     p5engine.obj
 0002:00000244       __real@3f228f5c            0000000180017244     p5engine.obj
 0002:00000248       __real@3f333333            0000000180017248     p5engine.obj
 0002:0000024c       __real@3f3504f3            000000018001724c     p5engine.obj
 0002:00000250       __real@3f400000            0000000180017250     p5engine.obj
 0002:00000254       __real@3f666666            0000000180017254     p5engine.obj
 0002:00000258       __real@3f800000            0000000180017258     p5engine.obj
 0002:0000025c       __real@3f8ccccd            000000018001725c     p5engine.obj
 0002:00000260       __real@3f99999a            0000000180017260     p5engine.obj
 0002:00000264       __real@3fb33333            0000000180017264     p5engine.obj
 0002:00000268       __real@3fc00000            0000000180017268     p5engine.obj
 0002:0000026c       __real@40000000            000000018001726c     p5engine.obj
 0002:00000270       __real@400ccccd            0000000180017270     p5engine.obj
 0002:00000274       __real@40400000            0000000180017274     p5engine.obj
 0002:00000278       __real@40800000            0000000180017278     p5engine.obj
 0002:0000027c       __real@40a00000            000000018001727c     p5engine.obj
 0002:00000280       __real@40c00000            0000000180017280     p5engine.obj
 0002:00000284       __real@40c90fdb            0000000180017284     p5engine.obj
 0002:00000288       __real@40e00000            0000000180017288     p5engine.obj
 0002:0000028c       __real@41100000            000000018001728c     p5engine.obj
 0002:00000290       __real@41700000            0000000180017290     p5engine.obj
 0002:00000294       __real@41880000            0000000180017294     p5engine.obj
 0002:00000298       __real@41a00000            0000000180017298     p5engine.obj
 0002:0000029c       __real@41f00000            000000018001729c     p5engine.obj
 0002:000002a0       __real@42000000            00000001800172a0     p5engine.obj
 0002:000002a4       __real@42340000            00000001800172a4     p5engine.obj
 0002:000002a8       __real@437f0000            00000001800172a8     p5engine.obj
 0002:000002ac       __real@461c4000            00000001800172ac     p5engine.obj
 0002:000002b0       __real@47c35000            00000001800172b0     p5engine.obj
 0002:000002b4       __real@49742400            00000001800172b4     p5engine.obj
 0002:000002b8       __real@7f7fffff            00000001800172b8     p5engine.obj
 0002:000002bc       __real@bc23d70a            00000001800172bc     p5engine.obj
 0002:000002c0       __real@bd4ccccd            00000001800172c0     p5engine.obj
 0002:000002c4       __real@be800000            00000001800172c4     p5engine.obj
 0002:000002c8       __real@becccccd            00000001800172c8     p5engine.obj
 0002:000002cc       __real@bf000000            00000001800172cc     p5engine.obj
 0002:000002d0       __real@bf800000            00000001800172d0     p5engine.obj
 0002:000002d4       __real@c0000000            00000001800172d4     p5engine.obj
 0002:000002d8       __real@c0100000            00000001800172d8     p5engine.obj
 0002:000002dc       __real@c0400000            00000001800172dc     p5engine.obj
 0002:000002e0       __real@c11ccccd            00000001800172e0     p5engine.obj
 0002:000002f0       __xmm@00000000000000000000000000000000 00000001800172f0     p5engine.obj
 0002:00000300       __xmm@3f8000003f8000003f8000003f800000 0000000180017300     p5engine.obj
 0002:00000310       __xmm@7fffffffffffffff7fffffffffffffff 0000000180017310     p5engine.obj
 0002:00000320       __xmm@80000000800000008000000080000000 0000000180017320     p5engine.obj
 0002:00000330       __xmm@000000ff000000ff000000ff000000ff 0000000180017330     p5engine_optimized.obj
 0002:00000340       __xmm@0000ffff0000ffff0000ffff0000ffff 0000000180017340     p5engine_optimized.obj
 0002:00000350       __xmm@00ff00ff00ff00ff00ff00ff00ff00ff 0000000180017350     p5engine_optimized.obj
 0002:00000360       __xmm@3b8080813b8080813b8080813b808081 0000000180017360     p5engine_optimized.obj
 0002:00000370       __xmm@3f0000003f0000003f0000003f000000 0000000180017370     p5engine_optimized.obj
 0002:00000380       __xmm@40800000408000004080000040800000 0000000180017380     p5engine_optimized.obj
 0002:00000390       __xmm@477e0100477e0100477e0100477e0100 0000000180017390     p5engine_optimized.obj
 0002:000003a0       __xmm@ffffffffffffffffffffffffffffffff 00000001800173a0     p5engine_optimized.obj
 0002:000003b0       _pDefaultRawDllMain        00000001800173b0     MSVCRTD:dll_dllmain.obj
 0002:000003b0       _pRawDllMain               00000001800173b0     MSVCRTD:dll_dllmain.obj
 0002:00000420       _load_config_used          0000000180017420     MSVCRTD:loadcfg.obj
 0002:00000580       __volatile_metadata        0000000180017580     <linker-defined>
 0002:000009d0       __rtc_iaa                  00000001800179d0     MSVCRTD:initsect.obj
 0002:000009d8       __rtc_izz                  00000001800179d8     MSVCRTD:initsect.obj
 0002:000009e0       __rtc_taa                  00000001800179e0     MSVCRTD:initsect.obj
 0002:000009e8       __rtc_tzz                  00000001800179e8     MSVCRTD:initsect.obj
 0002:00001244       __IMPORT_DESCRIPTOR_VCRUNTIME140D 0000000180018244     vcruntimed:VCRUNTIME140D.dll
 0002:00001258       __IMPORT_DESCRIPTOR_ucrtbased 0000000180018258     ucrtd:ucrtbased.dll
 0002:0000126c       __IMPORT_DESCRIPTOR_KERNEL32 000000018001826c     kernel32:KERNEL32.dll
 0002:00001280       __NULL_IMPORT_DESCRIPTOR   0000000180018280     vcruntimed:VCRUNTIME140D.dll
 0003:00004000       __security_cookie_complement 000000018001d000     MSVCRTD:gs_cookie.obj
 0003:00004008       __security_cookie          000000018001d008     MSVCRTD:gs_cookie.obj
 0003:00004010       _fltused                   000000018001d010     MSVCRTD:fltused.obj
 0003:00004014       __scrt_native_dllmain_reason 000000018001d014     MSVCRTD:utility.obj
 0003:00004018       __isa_available            000000018001d018     MSVCRTD:cpu_disp.obj
 0003:0000401c       __isa_enabled              000000018001d01c     MSVCRTD:cpu_disp.obj
 0003:00004020       __memcpy_nt_iters          000000018001d020     MSVCRTD:cpu_disp.obj
 0003:00004028       __memset_nt_iters          000000018001d028     MSVCRTD:cpu_disp.obj
 0003:00004030       __scrt_ucrt_dll_is_in_use  000000018001d030     MSVCRTD:ucrt_stubs.obj
 0003:00004040       DebugGlobalMemory          000000018001d040     p5engine.obj
 0003:00004630       ?__type_info_root_node@@3U__type_info_node@@A 000000018001d630     MSVCRTD:tncleanup.obj
 0003:00004640       ?_OptionsStorage@?1??__local_stdio_printf_options@@9@4_KA 000000018001d640     MSVCRTD:default_local_stdio_options.obj
 0003:00004648       ?_OptionsStorage@?1??__local_stdio_scanf_options@@9@4_KA 000000018001d648     MSVCRTD:default_local_stdio_options.obj
 0003:00004650       __scrt_current_native_startup_state 000000018001d650     MSVCRTD:utility.obj
 0003:00004658       __scrt_native_startup_lock 000000018001d658     MSVCRTD:utility.obj
 0003:00004698       __scrt_debugger_hook_flag  000000018001d698     MSVCRTD:utility_desktop.obj
 0003:000046a0       __castguard_check_failure_os_handled_fptr 000000018001d6a0     MSVCRTD:guard_support.obj
 0003:000046a8       __favor                    000000018001d6a8     MSVCRTD:cpu_disp.obj
 0003:000046b0       __dyn_tls_init_callback    000000018001d6b0     <common>
 0003:000046b8       __DebuggerCurrentSteppingThreadId 000000018001d6b8     <common>

 entry point at        0001:000140e0

 Static symbols

 0000:fffde000       .debug$S                   0000000180000000     P5Engine.exp
 0000:fffde000       .debug$S                   0000000180000000     vcruntimed:VCRUNTIME140D.dll
 0000:fffde000       .debug$S                   0000000180000000     vcruntimed:VCRUNTIME140D.dll
 0000:fffde000       .debug$S                   0000000180000000     vcruntimed:VCRUNTIME140D.dll
 0000:fffde000       .debug$S                   0000000180000000     vcruntimed:VCRUNTIME140D.dll
 0000:fffde000       .debug$S                   0000000180000000     ucrtd:ucrtbased.dll
 0000:fffde000       .debug$S                   0000000180000000     ucrtd:ucrtbased.dll
 0000:fffde000       .debug$S                   0000000180000000     ucrtd:ucrtbased.dll
 0000:fffde000       .debug$S                   0000000180000000     ucrtd:ucrtbased.dll
 0000:fffde000       .debug$S                   0000000180000000     ucrtd:ucrtbased.dll
 0000:fffde000       .debug$S                   0000000180000000     ucrtd:ucrtbased.dll
 0000:fffde000       .debug$S                   0000000180000000     ucrtd:ucrtbased.dll
 0000:fffde000       .debug$S                   0000000180000000     ucrtd:ucrtbased.dll
 0000:fffde000       .debug$S                   0000000180000000     ucrtd:ucrtbased.dll
 0000:fffde000       .debug$S                   0000000180000000     ucrtd:ucrtbased.dll
 0000:fffde000       .debug$S                   0000000180000000     ucrtd:ucrtbased.dll
 0000:fffde000       .debug$S                   0000000180000000     ucrtd:ucrtbased.dll
 0000:fffde000       .debug$S                   0000000180000000     ucrtd:ucrtbased.dll
 0000:fffde000       .debug$S                   0000000180000000     ucrtd:ucrtbased.dll
 0000:fffde000       .debug$S                   0000000180000000     ucrtd:ucrtbased.dll
 0000:fffde000       .debug$S                   0000000180000000     ucrtd:ucrtbased.dll
 0000:fffde000       .debug$S                   0000000180000000     kernel32:KERNEL32.dll
 0000:fffde000       .debug$S                   0000000180000000     kernel32:KERNEL32.dll
 0000:fffde000       .debug$S                   0000000180000000     kernel32:KERNEL32.dll
 0000:fffde000       .debug$S                   0000000180000000     kernel32:KERNEL32.dll
 0000:fffde000       .debug$S                   0000000180000000     kernel32:KERNEL32.dll
 0000:fffde000       .debug$S                   0000000180000000     kernel32:KERNEL32.dll
 0000:fffde000       .debug$S                   0000000180000000     kernel32:KERNEL32.dll
 0000:fffde000       .debug$S                   0000000180000000     kernel32:KERNEL32.dll
 0000:fffde000       .debug$S                   0000000180000000     kernel32:KERNEL32.dll
 0000:fffde000       .debug$S                   0000000180000000     kernel32:KERNEL32.dll
 0000:fffde000       .debug$S                   0000000180000000     kernel32:KERNEL32.dll
 0000:fffde000       .debug$S                   0000000180000000     kernel32:KERNEL32.dll
 0000:fffde000       .debug$S                   0000000180000000     kernel32:KERNEL32.dll
 0000:fffde000       .debug$S                   0000000180000000     kernel32:KERNEL32.dll
 0000:fffde000       .debug$S                   0000000180000000     kernel32:KERNEL32.dll
 0000:fffde000       .debug$S                   0000000180000000     kernel32:KERNEL32.dll
 0000:fffde000       .debug$S                   0000000180000000     kernel32:KERNEL32.dll
 0001:00000000       ?MoveHeaderToFront@@YAXPEAUgame_assets@@PEAUasset@@@Z 0000000180001000 f   p5engine.obj
 0001:00000060       ?LoadBitmap@@YAXPEAUgame_assets@@Ubitmap_id@@H@Z 0000000180001060 f   p5engine.obj
 0001:00000420       ?LoadSound@@YAXPEAUgame_assets@@Usound_id@@@Z 0000000180001420 f   p5engine.obj
 0001:00000740       ?AddCollisionRule@@YAXPEAUgame_state@@IIH@Z 0000000180001740 f   p5engine.obj
 0001:000008c0       ?ClearCollisionRulesFor@@YAXPEAUgame_state@@I@Z 00000001800018c0 f   p5engine.obj
 0001:000009c0       ?BeginTaskWithMemory@@YAPEAUtask_with_memory@@PEAUtransient_state@@@Z 00000001800019c0 f   p5engine.obj
 0001:00000aa0       ?EndTaskWithMemory@@YAXPEAUtask_with_memory@@@Z 0000000180001aa0 f   p5engine.obj
 0001:00000b00       ?DrawRectangle@@YAXPEAUloaded_bitmap@@Tv2@@1Tv4@@Urectangle2i@@H@Z 0000000180001b00 f   p5engine.obj
 0001:00000dc0       ?RenderGroupToOutput@@YAXPEAUrender_group@@PEAUloaded_bitmap@@Urectangle2i@@H@Z 0000000180001dc0 f   p5engine.obj
 0001:000011c0       ?DoTiledRenderWork@@YAXPEAUplatform_work_queue@@PEAX@Z 00000001800021c0 f   p5engine.obj
 0001:00001270       ?RenderGroupToOutput@@YAXPEAUrender_group@@PEAUloaded_bitmap@@@Z 0000000180002270 f   p5engine.obj
 0001:00001360       ?TiledRenderGroupToOutput@@YAXPEAUplatform_work_queue@@PEAUrender_group@@PEAUloaded_bitmap@@@Z 0000000180002360 f   p5engine.obj
 0001:000015a0       ?AllocateRenderGroup@@YAPEAUrender_group@@PEAUgame_assets@@PEAUmemory_arena@@IH@Z 00000001800025a0 f   p5engine.obj
 0001:000016e0       ?InitializeWorld@@YAXPEAUworld@@Tv3@@@Z 00000001800026e0 f   p5engine.obj
 0001:00001780       ?Subtract@@YA?ATv3@@PEAUworld@@PEAUworld_position@@1@Z 0000000180002780 f   p5engine.obj
 0001:000019f0       ?ChangeEntityLocation@@YAXPEAUmemory_arena@@PEAUworld@@IPEAUlow_entity@@Uworld_position@@@Z 00000001800029f0 f   p5engine.obj
 0001:00001b80       ?GetHashFromStorageIndex@@YAPEAUsim_entity_hash@@PEAUsim_region@@I@Z 0000000180002b80 f   p5engine.obj
 0001:00001c50       ?AddEntity@@YAPEAUsim_entity@@PEAUgame_state@@PEAUsim_region@@IPEAUlow_entity@@PEATv3@@@Z 0000000180002c50 f   p5engine.obj
 0001:00001db0       ?AddEntityRaw@@YAPEAUsim_entity@@PEAUgame_state@@PEAUsim_region@@IPEAUlow_entity@@@Z 0000000180002db0 f   p5engine.obj
 0001:00001f30       ?BeginSim@@YAPEAUsim_region@@PEAUmemory_arena@@PEAUgame_state@@PEAUworld@@Uworld_position@@Urectangle3@@M@Z 0000000180002f30 f   p5engine.obj
 0001:000025a0       ?EndSim@@YAXPEAUsim_region@@PEAUgame_state@@@Z 00000001800035a0 f   p5engine.obj
 0001:00002860       ?CanCollide@@YAHPEAUgame_state@@PEAUsim_entity@@1@Z 0000000180003860 f   p5engine.obj
 0001:000029b0       ?HandleCollision@@YAHPEAUgame_state@@PEAUsim_entity@@1@Z 00000001800039b0 f   p5engine.obj
 0001:00002a90       ?CanOverlap@@YAHPEAUgame_state@@PEAUsim_entity@@1@Z 0000000180003a90 f   p5engine.obj
 0001:00002af0       ?HandleOverlap@@YAXPEAUgame_state@@PEAUsim_entity@@1MPEAM@Z 0000000180003af0 f   p5engine.obj
 0001:00002b90       ?SpeculativeCollide@@YAHPEAUsim_entity@@0Tv3@@@Z 0000000180003b90 f   p5engine.obj
 0001:00002c90       ?EntitiesOverlap@@YAHPEAUsim_entity@@0Tv3@@@Z 0000000180003c90 f   p5engine.obj
 0001:00002fd0       ?MoveEntity@@YAXPEAUgame_state@@PEAUsim_region@@PEAUsim_entity@@MPEAUmove_spec@@Tv3@@@Z 0000000180003fd0 f   p5engine.obj
 0001:00004930       ?LoadAssetWork@@YAXPEAUplatform_work_queue@@PEAX@Z 0000000180005930 f   p5engine.obj
 0001:000049e0       ?InsertBlock@@YAPEAUasset_memory_block@@PEAU1@_KPEAX@Z 00000001800059e0 f   p5engine.obj
 0001:00004a90       ?FindBlockForSize@@YAPEAUasset_memory_block@@PEAUgame_assets@@_K@Z 0000000180005a90 f   p5engine.obj
 0001:00004b30       ?MergeIfPossible@@YAHPEAUgame_assets@@PEAUasset_memory_block@@1@Z 0000000180005b30 f   p5engine.obj
 0001:00004c30       ?AcquireAssetMemory@@YAPEAXPEAUgame_assets@@_K@Z 0000000180005c30 f   p5engine.obj
 0001:00004e80       ?GetBestMatchAssetFrom@@YAIPEAUgame_assets@@W4asset_type_id@@PEAUasset_vector@@2@Z 0000000180005e80 f   p5engine.obj
 0001:000050c0       ?GetRandomAssetFrom@@YAIPEAUgame_assets@@W4asset_type_id@@PEAUrandom_series@@@Z 00000001800060c0 f   p5engine.obj
 0001:00005160       ?GetFirstAssetFrom@@YAIPEAUgame_assets@@W4asset_type_id@@@Z 0000000180006160 f   p5engine.obj
 0001:000051d0       ?GetBestMatchBitmapFrom@@YA?AUbitmap_id@@PEAUgame_assets@@W4asset_type_id@@PEAUasset_vector@@2@Z 00000001800061d0 f   p5engine.obj
 0001:00005220       ?GetFirstBitmapFrom@@YA?AUbitmap_id@@PEAUgame_assets@@W4asset_type_id@@@Z 0000000180006220 f   p5engine.obj
 0001:00005260       ?GetRandomBitmapFrom@@YA?AUbitmap_id@@PEAUgame_assets@@W4asset_type_id@@PEAUrandom_series@@@Z 0000000180006260 f   p5engine.obj
 0001:000052b0       ?GetRandomSoundFrom@@YA?AUsound_id@@PEAUgame_assets@@W4asset_type_id@@PEAUrandom_series@@@Z 00000001800062b0 f   p5engine.obj
 0001:00005300       ?AllocateGameAssets@@YAPEAUgame_assets@@PEAUmemory_arena@@_KPEAUtransient_state@@@Z 0000000180006300 f   p5engine.obj
 0001:00005be0       ?PlaySound@@YAPEAUplaying_sound@@PEAUaudio_state@@Usound_id@@@Z 0000000180006be0 f   p5engine.obj
 0001:00005d10       ?ChangeVolume@@YAXPEAUaudio_state@@PEAUplaying_sound@@MTv2@@@Z 0000000180006d10 f   p5engine.obj
 0001:00005de0       ?OutputPlayingSounds@@YAXPEAUaudio_state@@PEAUgame_sound_output_buffer@@PEAUgame_assets@@PEAUmemory_arena@@@Z 0000000180006de0 f   p5engine.obj
 0001:00006ec0       ?InitializeAudioState@@YAXPEAUaudio_state@@PEAUmemory_arena@@@Z 0000000180007ec0 f   p5engine.obj
 0001:00006f40       ?AddLowEntity@@YA?AUadd_low_entity_result@@PEAUgame_state@@W4entity_type@@Uworld_position@@@Z 0000000180007f40 f   p5engine.obj
 0001:00007140       ?AddGroundedEntity@@YA?AUadd_low_entity_result@@PEAUgame_state@@W4entity_type@@Uworld_position@@PEAUsim_entity_collision_volume_group@@@Z 0000000180008140 f   p5engine.obj
 0001:000071f0       ?AddStandardRoom@@YA?AUadd_low_entity_result@@PEAUgame_state@@III@Z 00000001800081f0 f   p5engine.obj
 0001:00007350       ?AddWall@@YA?AUadd_low_entity_result@@PEAUgame_state@@III@Z 0000000180008350 f   p5engine.obj
 0001:000074b0       ?AddStairs@@YA?AUadd_low_entity_result@@PEAUgame_state@@III@Z 00000001800084b0 f   p5engine.obj
 0001:00007640       ?InitHitPoints@@YAXPEAUlow_entity@@I@Z 0000000180008640 f   p5engine.obj
 0001:000076d0       ?AddSword@@YA?AUadd_low_entity_result@@PEAUgame_state@@@Z 00000001800086d0 f   p5engine.obj
 0001:000077c0       ?AddPlayer@@YA?AUadd_low_entity_result@@PEAUgame_state@@@Z 00000001800087c0 f   p5engine.obj
 0001:00007900       ?AddMonstar@@YA?AUadd_low_entity_result@@PEAUgame_state@@III@Z 0000000180008900 f   p5engine.obj
 0001:00007a70       ?AddFamiliar@@YA?AUadd_low_entity_result@@PEAUgame_state@@III@Z 0000000180008a70 f   p5engine.obj
 0001:00007bd0       ?DrawHitpoints@@YAXPEAUsim_entity@@PEAUrender_group@@@Z 0000000180008bd0 f   p5engine.obj
 0001:00007e40       ?MakeSimpleGroundedCollision@@YAPEAUsim_entity_collision_volume_group@@PEAUgame_state@@MMM@Z 0000000180008e40 f   p5engine.obj
 0001:00007fa0       ?MakeNullCollision@@YAPEAUsim_entity_collision_volume_group@@PEAUgame_state@@@Z 0000000180008fa0 f   p5engine.obj
 0001:00008080       ?FillGroundChunkWork@@YAXPEAUplatform_work_queue@@PEAX@Z 0000000180009080 f   p5engine.obj
 0001:000080e0       ?FillGroundChunk@@YAXPEAUtransient_state@@PEAUgame_state@@PEAUground_buffer@@PEAUworld_position@@@Z 00000001800090e0 f   p5engine.obj
 0001:00008890       ?ClearBitmap@@YAXPEAUloaded_bitmap@@@Z 0000000180009890 f   p5engine.obj
 0001:000088f0       ?MakeEmptyBitmap@@YA?AUloaded_bitmap@@PEAUmemory_arena@@HHH@Z 00000001800098f0 f   p5engine.obj
 0001:00008a30       ?MakeSphereDiffuseMap@@YAXPEAUloaded_bitmap@@MM@Z 0000000180009a30 f   p5engine.obj
 0001:00008d60       ?MakeSphereNormalMap@@YAXPEAUloaded_bitmap@@MMM@Z 0000000180009d60 f   p5engine.obj
 0001:0000dc78       $LN167                     000000018000ec78     p5engine.obj
 0001:00013c40       $$000000                   0000000180014c40     MSVCRTD:chkstk.obj
 0001:00013ca0       $$000000                   0000000180014ca0     MSVCRTD:amdsecgs.obj
 0001:00013cd0       ?dllmain_crt_dispatch@@YAHQEAUHINSTANCE__@@KQEAX@Z 0000000180014cd0 f   MSVCRTD:dll_dllmain.obj
 0001:00013d60       ?dllmain_crt_process_attach@@YAHQEAUHINSTANCE__@@QEAX@Z 0000000180014d60 f   MSVCRTD:dll_dllmain.obj
 0001:00013ea0       ?dllmain_crt_process_detach@@YAH_N@Z 0000000180014ea0 f   MSVCRTD:dll_dllmain.obj
 0001:00013f40       ?dllmain_dispatch@@YAHQEAUHINSTANCE__@@KQEAX@Z 0000000180014f40 f   MSVCRTD:dll_dllmain.obj
 0001:00014080       ?dllmain_raw@@YAHQEAUHINSTANCE__@@KQEAX@Z 0000000180015080 f   MSVCRTD:dll_dllmain.obj
 0001:00014240       capture_previous_context   0000000180015240 f   MSVCRTD:gs_report.obj
 0001:00014300       __get_entropy              0000000180015300 f   MSVCRTD:gs_support.obj
 0001:00014550       ?find_pe_section@@YAPEAU_IMAGE_SECTION_HEADER@@QEAE_K@Z 0000000180015550 f   MSVCRTD:utility.obj
 0001:00014630       ?is_potentially_valid_image_base@@YA_NQEAX@Z 0000000180015630 f   MSVCRTD:utility.obj
 0001:000151d0       $$000000                   00000001800161d0     MSVCRTD:guard_dispatch.obj
 0001:000151f0       $$000000                   00000001800161f0     MSVCRTD:guard_xfg_dispatch.obj
 0001:00015210       ?fin$0@?0??dllmain_crt_process_attach@@YAHQEAUHINSTANCE__@@QEAX@Z@4HA 0000000180016210 f   MSVCRTD:dll_dllmain.obj
 0001:00015230       ?fin$0@?0??dllmain_crt_process_detach@@YAH_N@Z@4HA 0000000180016230 f   MSVCRTD:dll_dllmain.obj
 0001:0001524a       ?fin$1@?0??dllmain_crt_process_detach@@YAH_N@Z@4HA 000000018001624a f   MSVCRTD:dll_dllmain.obj
 0001:00015260       ?filt$0@?0??dllmain_dispatch@@YAHQEAUHINSTANCE__@@KQEAX@Z@4HA 0000000180016260 f   MSVCRTD:dll_dllmain.obj
 0001:000152b0       __scrt_is_nonwritable_in_current_image$filt$0 00000001800162b0 f   MSVCRTD:utility.obj
 0002:00000170       $SG29544                   0000000180017170     p5engine.obj
 0002:00000180       $SG29973                   0000000180017180     p5engine.obj
 0002:00000190       $SG30817                   0000000180017190     p5engine.obj
 0002:00000198       $SG30819                   0000000180017198     p5engine.obj
 0002:000001c0       $SG30821                   00000001800171c0     p5engine.obj
 0002:000001e0       $SG30825                   00000001800171e0     p5engine.obj
 0002:000001f0       $SG32140                   00000001800171f0     p5engine.obj
 0002:000003b8       GS_ExceptionPointers       00000001800173b8     MSVCRTD:gs_report.obj
 0002:000009f0       $unwind$?GetFileHandleFor@@YAPEAUplatform_file_handle@@PEAUgame_assets@@I@Z 00000001800179f0     p5engine.obj
 0002:000009f0       $unwind$?GetLowEntity@@YAPEAUlow_entity@@PEAUgame_state@@I@Z 00000001800179f0     p5engine.obj
 0002:000009f0       $unwind$?GetSound@@YAPEAUloaded_sound@@PEAUgame_assets@@Usound_id@@@Z 00000001800179f0     p5engine.obj
 0002:000009f0       $unwind$?GetSoundInfo@@YAPEAUp5a_sound@@PEAUgame_assets@@Usound_id@@@Z 00000001800179f0     p5engine.obj
 0002:000009f0       $unwind$?HasFlag@@YAHPEAUsim_entity@@I@Z 00000001800179f0     p5engine.obj
 0002:000009f0       $unwind$?RandomChoice@@YAIPEAUrandom_series@@I@Z 00000001800179f0     p5engine.obj
 0002:000009f0       $unwind$GetController      00000001800179f0     p5engine.obj
 0002:000009f8       $unwind$?InitializeArena@@YAXPEAUmemory_arena@@_KPEAX@Z 00000001800179f8     p5engine.obj
 0002:00000a00       $unwind$?GetAlignmentOffset@@YA_KPEAUmemory_arena@@_K@Z 0000000180017a00     p5engine.obj
 0002:00000a08       $unwind$??Y@YAAEATv2@@AEAT0@T0@@Z 0000000180017a08     p5engine.obj
 0002:00000a08       $unwind$?GetArenaSizeRemaining@@YA_KPEAUmemory_arena@@_K@Z 0000000180017a08     p5engine.obj
 0002:00000a08       $unwind$?Hadamard@@YA?ATv2@@T1@0@Z 0000000180017a08     p5engine.obj
 0002:00000a08       $unwind$?Inner@@YAMTv2@@0@Z 0000000180017a08     p5engine.obj
 0002:00000a08       $unwind$?Inner@@YAMTv3@@0@Z 0000000180017a08     p5engine.obj
 0002:00000a08       $unwind$?InsertAssetHeaderAtFront@@YAXPEAUgame_assets@@PEAUasset_memory_header@@@Z 0000000180017a08     p5engine.obj
 0002:00000a08       $unwind$?IsCanonical@@YAHPEAUworld@@Tv3@@@Z 0000000180017a08     p5engine.obj
 0002:00000a08       $unwind$?IsInRectangle@@YAHUrectangle3@@Tv3@@@Z 0000000180017a08     p5engine.obj
 0002:00000a08       $unwind$?RectanglesIntersect@@YAHUrectangle3@@0@Z 0000000180017a08     p5engine.obj
 0002:00000a08       $unwind$?ZeroSize@@YAX_KPEAX@Z 0000000180017a08     p5engine.obj
 0002:00000a08       $unwind$?find_pe_section@@YAPEAU_IMAGE_SECTION_HEADER@@QEAE_K@Z 0000000180017a08     MSVCRTD:utility.obj
 0002:00000a10       $unwind$?PushSize_@@YAPEAXPEAUmemory_arena@@_K1@Z 0000000180017a10     p5engine.obj
 0002:00000a18       $unwind$?BeginTemporaryMemory@@YA?AUtemporary_memory@@PEAUmemory_arena@@@Z 0000000180017a18     p5engine.obj
 0002:00000a2c       $unwind$?AllResourcesPresent@@YAHPEAUrender_group@@@Z 0000000180017a2c     p5engine.obj
 0002:00000a2c       $unwind$?EndTemporaryMemory@@YAXUtemporary_memory@@@Z 0000000180017a2c     p5engine.obj
 0002:00000a2c       $unwind$?GetDim@@YA?ATv2@@Urectangle2@@@Z 0000000180017a2c     p5engine.obj
 0002:00000a2c       $unwind$?GetState@@YAIPEAUasset@@@Z 0000000180017a2c     p5engine.obj
 0002:00000a2c       $unwind$?IsLocked@@YAHPEAUasset@@@Z 0000000180017a2c     p5engine.obj
 0002:00000a2c       $unwind$?IsValid@@YAHUworld_position@@@Z 0000000180017a2c     p5engine.obj
 0002:00000a2c       $unwind$?LengthSq@@YAMTv2@@@Z 0000000180017a2c     p5engine.obj
 0002:00000a2c       $unwind$?RandomBilateral@@YAMPEAUrandom_series@@@Z 0000000180017a2c     p5engine.obj
 0002:00000a2c       $unwind$?RandomNextUInt32@@YAIPEAUrandom_series@@@Z 0000000180017a2c     p5engine.obj
 0002:00000a2c       $unwind$?RandomUnilateral@@YAMPEAUrandom_series@@@Z 0000000180017a2c     p5engine.obj
 0002:00000a2c       $unwind$__CheckForDebuggerJustMyCode 0000000180017a2c     MSVCRTD:debugger_jmc.obj
 0002:00000a2c       $unwind$__report_gsfailure 0000000180017a2c     MSVCRTD:gs_report.obj
 0002:00000a34       $unwind$?CheckArena@@YAXPEAUmemory_arena@@@Z 0000000180017a34     p5engine.obj
 0002:00000a34       $unwind$?RemoveAssetHeaderFromList@@YAXPEAUasset_memory_header@@@Z 0000000180017a34     p5engine.obj
 0002:00000a34       $unwind$?StoreEntityReference@@YAXPEATentity_reference@@@Z 0000000180017a34     p5engine.obj
 0002:00000a34       $unwind$__raise_securityfailure 0000000180017a34     MSVCRTD:gs_report.obj
 0002:00000a34       $unwind$?is_potentially_valid_image_base@@YA_NQEAX@Z 0000000180017a34     MSVCRTD:utility.obj
 0002:00000a3c       $unwind$?SubArena@@YAXPEAUmemory_arena@@0_K1@Z 0000000180017a3c     p5engine.obj
 0002:00000a3c       $unwind$__GSHandlerCheck   0000000180017a3c     MSVCRTD:gshandler.obj
 0002:00000a44       $unwind$?AddAssetHeaderToList@@YAXPEAUgame_assets@@IUasset_memory_size@@@Z 0000000180017a44     p5engine.obj
 0002:00000a44       $unwind$?AtomicCompareExchangeUInt32@@YAIPECIII@Z 0000000180017a44     p5engine.obj
 0002:00000a44       $unwind$?GetBitmap@@YAPEAUloaded_bitmap@@PEAUgame_assets@@Ubitmap_id@@H@Z 0000000180017a44     p5engine.obj
 0002:00000a44       $unwind$?PushRenderElement_@@YAPEAXPEAUrender_group@@IW4render_group_entry_type@@@Z 0000000180017a44     p5engine.obj
 0002:00000a44       $unwind$?dllmain_crt_dispatch@@YAHQEAUHINSTANCE__@@KQEAX@Z 0000000180017a44     MSVCRTD:dll_dllmain.obj
 0002:00000a44       $unwind$?dllmain_raw@@YAHQEAUHINSTANCE__@@KQEAX@Z 0000000180017a44     MSVCRTD:dll_dllmain.obj
 0002:00000a4c       $unwind$?AbsoluteValue@@YAMM@Z 0000000180017a4c     p5engine.obj
 0002:00000a4c       $unwind$?Clamp01@@YAMM@Z   0000000180017a4c     p5engine.obj
 0002:00000a4c       $unwind$?RoundReal32ToInt32@@YAHM@Z 0000000180017a4c     p5engine.obj
 0002:00000a4c       $unwind$?RoundReal32ToUInt32@@YAIM@Z 0000000180017a4c     p5engine.obj
 0002:00000a4c       $unwind$?SignOf@@YAMM@Z    0000000180017a4c     p5engine.obj
 0002:00000a4c       $unwind$?Sin@@YAMM@Z       0000000180017a4c     p5engine.obj
 0002:00000a4c       $unwind$?Square@@YAMM@Z    0000000180017a4c     p5engine.obj
 0002:00000a4c       $unwind$?SquareRoot@@YAMM@Z 0000000180017a4c     p5engine.obj
 0002:00000a4c       $unwind$?TruncateReal32ToInt32@@YAHM@Z 0000000180017a4c     p5engine.obj
 0002:00000a54       $unwind$?ATan2@@YAMMM@Z    0000000180017a54     p5engine.obj
 0002:00000a54       $unwind$?IsCanonical@@YAHMM@Z 0000000180017a54     p5engine.obj
 0002:00000a54       $unwind$?SafeRatio1@@YAMMM@Z 0000000180017a54     p5engine.obj
 0002:00000a5c       $unwind$?Clamp01MapToRange@@YAMMMM@Z 0000000180017a5c     p5engine.obj
 0002:00000a5c       $unwind$?Clamp@@YAMMMM@Z   0000000180017a5c     p5engine.obj
 0002:00000a5c       $unwind$?Lerp@@YAMMMM@Z    0000000180017a5c     p5engine.obj
 0002:00000a5c       $unwind$?SafeRatioN@@YAMMMM@Z 0000000180017a5c     p5engine.obj
 0002:00000a64       $unwind$?V2@@YA?ATv2@@MM@Z 0000000180017a64     p5engine.obj
 0002:00000a74       $unwind$?V2i@@YA?ATv2@@HH@Z 0000000180017a74     p5engine.obj
 0002:00000a7c       $unwind$??D@YA?ATv2@@MT0@@Z 0000000180017a7c     p5engine.obj
 0002:00000a8c       $unwind$??G@YA?ATv2@@T0@0@Z 0000000180017a8c     p5engine.obj
 0002:00000a8c       $unwind$??H@YA?ATv2@@T0@0@Z 0000000180017a8c     p5engine.obj
 0002:00000a8c       $unwind$?GetBarycentric@@YA?ATv2@@Urectangle2@@T1@@Z 0000000180017a8c     p5engine.obj
 0002:00000a9c       $unwind$?Clamp01@@YA?ATv2@@T1@@Z 0000000180017a9c     p5engine.obj
 0002:00000aac       $unwind$?V3@@YA?ATv3@@MMM@Z 0000000180017aac     p5engine.obj
 0002:00000aac       $unwind$?V4@@YA?ATv4@@MMMM@Z 0000000180017aac     p5engine.obj
 0002:00000ac0       $unwind$??D@YA?ATv3@@MT0@@Z 0000000180017ac0     p5engine.obj
 0002:00000ac0       $unwind$??D@YA?ATv4@@MT0@@Z 0000000180017ac0     p5engine.obj
 0002:00000ac0       $unwind$?ToV3@@YA?ATv3@@Tv2@@M@Z 0000000180017ac0     p5engine.obj
 0002:00000ad4       $unwind$??D@YA?ATv3@@T0@M@Z 0000000180017ad4     p5engine.obj
 0002:00000ad4       $unwind$?GetCameraRectangleAtDistance@@YA?AUrectangle2@@PEAUrender_group@@M@Z 0000000180017ad4     p5engine.obj
 0002:00000ae0       $unwind$??X@YAAEATv3@@AEAT0@M@Z 0000000180017ae0     p5engine.obj
 0002:00000aec       $unwind$??G@YA?ATv3@@T0@0@Z 0000000180017aec     p5engine.obj
 0002:00000aec       $unwind$??H@YA?ATv3@@T0@0@Z 0000000180017aec     p5engine.obj
 0002:00000aec       $unwind$??H@YA?ATv4@@T0@0@Z 0000000180017aec     p5engine.obj
 0002:00000b00       $unwind$??Y@YAAEATv3@@AEAT0@T0@@Z 0000000180017b00     p5engine.obj
 0002:00000b00       $unwind$??Y@YAAEATv4@@AEAT0@T0@@Z 0000000180017b00     p5engine.obj
 0002:00000b00       $unwind$??Z@YAAEATv3@@AEAT0@T0@@Z 0000000180017b00     p5engine.obj
 0002:00000b00       $unwind$?GetDim@@YA?ATv3@@Urectangle3@@@Z 0000000180017b00     p5engine.obj
 0002:00000b0c       $unwind$?AreInSameChunk@@YAHPEAUworld@@PEAUworld_position@@1@Z 0000000180017b0c     p5engine.obj
 0002:00000b0c       $unwind$?Hadamard@@YA?ATv3@@T1@0@Z 0000000180017b0c     p5engine.obj
 0002:00000b0c       $unwind$?RectCenterDim@@YA?AUrectangle2@@Tv2@@0@Z 0000000180017b0c     p5engine.obj
 0002:00000b18       $unwind$?LengthSq@@YAMTv3@@@Z 0000000180017b18     p5engine.obj
 0002:00000b24       $unwind$?Length@@YAMTv3@@@Z 0000000180017b24     p5engine.obj
 0002:00000b24       $unwind$?MakeEntityNonSpatial@@YAXPEAUsim_entity@@@Z 0000000180017b24     p5engine.obj
 0002:00000b30       $unwind$?RectCenterHalfDim@@YA?AUrectangle2@@Tv2@@0@Z 0000000180017b30     p5engine.obj
 0002:00000b44       $unwind$?Intersect@@YA?AUrectangle2i@@U1@0@Z 0000000180017b44     p5engine.obj
 0002:00000b50       $unwind$?Clear@@YAXPEAUrender_group@@Tv4@@@Z 0000000180017b50     p5engine.obj
 0002:00000b50       $unwind$?GetMaxCorner@@YA?ATv3@@Urectangle3@@@Z 0000000180017b50     p5engine.obj
 0002:00000b50       $unwind$?GetMinCorner@@YA?ATv3@@Urectangle3@@@Z 0000000180017b50     p5engine.obj
 0002:00000b5c       $unwind$?RectMinMax@@YA?AUrectangle3@@Tv3@@0@Z 0000000180017b5c     p5engine.obj
 0002:00000b70       $unwind$?AddRadiusTo@@YA?AUrectangle3@@U1@Tv3@@@Z 0000000180017b70     p5engine.obj
 0002:00000b70       $unwind$?RectCenterHalfDim@@YA?AUrectangle3@@Tv3@@0@Z 0000000180017b70     p5engine.obj
 0002:00000b84       $unwind$?RectCenterDim@@YA?AUrectangle3@@Tv3@@0@Z 0000000180017b84     p5engine.obj
 0002:00000b90       $unwind$?RandomSeed@@YA?AUrandom_series@@I@Z 0000000180017b90     p5engine.obj
 0002:00000ba0       $unwind$?RandomBetween@@YAMPEAUrandom_series@@MM@Z 0000000180017ba0     p5engine.obj
 0002:00000ba8       $unwind$?AddFlags@@YAXPEAUsim_entity@@I@Z 0000000180017ba8     p5engine.obj
 0002:00000ba8       $unwind$?ClearFlags@@YAXPEAUsim_entity@@I@Z 0000000180017ba8     p5engine.obj
 0002:00000ba8       $unwind$?PrefetchSound@@YAXPEAUgame_assets@@Usound_id@@@Z 0000000180017ba8     p5engine.obj
 0002:00000bb0       $unwind$?MakeEntitySpatial@@YAXPEAUsim_entity@@Tv3@@1@Z 0000000180017bb0     p5engine.obj
 0002:00000bbc       $unwind$?GetEntityGroundPoint@@YA?ATv3@@PEAUsim_entity@@T1@@Z 0000000180017bbc     p5engine.obj
 0002:00000bc8       $unwind$?GetEntityGroundPoint@@YA?ATv3@@PEAUsim_entity@@@Z 0000000180017bc8     p5engine.obj
 0002:00000bd4       $unwind$?GetStairGround@@YAMPEAUsim_entity@@Tv3@@@Z 0000000180017bd4     p5engine.obj
 0002:00000be0       $unwind$?MoveHeaderToFront@@YAXPEAUgame_assets@@PEAUasset@@@Z 0000000180017be0     p5engine.obj
 0002:00000be8       $unwind$?LoadBitmap@@YAXPEAUgame_assets@@Ubitmap_id@@H@Z 0000000180017be8     p5engine.obj
 0002:00000bfc       $unwind$?LoadSound@@YAXPEAUgame_assets@@Usound_id@@@Z 0000000180017bfc     p5engine.obj
 0002:00000c10       $unwind$?AddCollisionRule@@YAXPEAUgame_state@@IIH@Z 0000000180017c10     p5engine.obj
 0002:00000c18       $unwind$?ClearCollisionRulesFor@@YAXPEAUgame_state@@I@Z 0000000180017c18     p5engine.obj
 0002:00000c20       $unwind$?BeginTaskWithMemory@@YAPEAUtask_with_memory@@PEAUtransient_state@@@Z 0000000180017c20     p5engine.obj
 0002:00000c2c       $unwind$?EndTaskWithMemory@@YAXPEAUtask_with_memory@@@Z 0000000180017c2c     p5engine.obj
 0002:00000c38       $unwind$?DrawRectangle@@YAXPEAUloaded_bitmap@@Tv2@@1Tv4@@Urectangle2i@@H@Z 0000000180017c38     p5engine.obj
 0002:00000c44       $unwind$?RenderGroupToOutput@@YAXPEAUrender_group@@PEAUloaded_bitmap@@Urectangle2i@@H@Z 0000000180017c44     p5engine.obj
 0002:00000c50       $unwind$?DoTiledRenderWork@@YAXPEAUplatform_work_queue@@PEAX@Z 0000000180017c50     p5engine.obj
 0002:00000c5c       $unwind$?RenderGroupToOutput@@YAXPEAUrender_group@@PEAUloaded_bitmap@@@Z 0000000180017c5c     p5engine.obj
 0002:00000c70       $unwind$?TiledRenderGroupToOutput@@YAXPEAUplatform_work_queue@@PEAUrender_group@@PEAUloaded_bitmap@@@Z 0000000180017c70     p5engine.obj
 0002:00000c84       $unwind$?AllocateRenderGroup@@YAPEAUrender_group@@PEAUgame_assets@@PEAUmemory_arena@@IH@Z 0000000180017c84     p5engine.obj
 0002:00000c90       $unwind$?InitializeWorld@@YAXPEAUworld@@Tv3@@@Z 0000000180017c90     p5engine.obj
 0002:00000c9c       $unwind$?Subtract@@YA?ATv3@@PEAUworld@@PEAUworld_position@@1@Z 0000000180017c9c     p5engine.obj
 0002:00000cb0       $unwind$?ChangeEntityLocation@@YAXPEAUmemory_arena@@PEAUworld@@IPEAUlow_entity@@Uworld_position@@@Z 0000000180017cb0     p5engine.obj
 0002:00000cbc       $unwind$?GetHashFromStorageIndex@@YAPEAUsim_entity_hash@@PEAUsim_region@@I@Z 0000000180017cbc     p5engine.obj
 0002:00000cc4       $unwind$?AddEntity@@YAPEAUsim_entity@@PEAUgame_state@@PEAUsim_region@@IPEAUlow_entity@@PEATv3@@@Z 0000000180017cc4     p5engine.obj
 0002:00000cd0       $unwind$?AddEntityRaw@@YAPEAUsim_entity@@PEAUgame_state@@PEAUsim_region@@IPEAUlow_entity@@@Z 0000000180017cd0     p5engine.obj
 0002:00000cdc       $unwind$?BeginSim@@YAPEAUsim_region@@PEAUmemory_arena@@PEAUgame_state@@PEAUworld@@Uworld_position@@Urectangle3@@M@Z 0000000180017cdc     p5engine.obj
 0002:00000cf0       $unwind$?EndSim@@YAXPEAUsim_region@@PEAUgame_state@@@Z 0000000180017cf0     p5engine.obj
 0002:00000cfc       $unwind$?CanCollide@@YAHPEAUgame_state@@PEAUsim_entity@@1@Z 0000000180017cfc     p5engine.obj
 0002:00000d04       $unwind$?HandleCollision@@YAHPEAUgame_state@@PEAUsim_entity@@1@Z 0000000180017d04     p5engine.obj
 0002:00000d0c       $unwind$?CanOverlap@@YAHPEAUgame_state@@PEAUsim_entity@@1@Z 0000000180017d0c     p5engine.obj
 0002:00000d14       $unwind$?HandleOverlap@@YAXPEAUgame_state@@PEAUsim_entity@@1MPEAM@Z 0000000180017d14     p5engine.obj
 0002:00000d20       $unwind$?SpeculativeCollide@@YAHPEAUsim_entity@@0Tv3@@@Z 0000000180017d20     p5engine.obj
 0002:00000d2c       $unwind$?EntitiesOverlap@@YAHPEAUsim_entity@@0Tv3@@@Z 0000000180017d2c     p5engine.obj
 0002:00000d38       $unwind$?MoveEntity@@YAXPEAUgame_state@@PEAUsim_region@@PEAUsim_entity@@MPEAUmove_spec@@Tv3@@@Z 0000000180017d38     p5engine.obj
 0002:00000d4c       $unwind$?LoadAssetWork@@YAXPEAUplatform_work_queue@@PEAX@Z 0000000180017d4c     p5engine.obj
 0002:00000d54       $unwind$?InsertBlock@@YAPEAUasset_memory_block@@PEAU1@_KPEAX@Z 0000000180017d54     p5engine.obj
 0002:00000d5c       $unwind$?FindBlockForSize@@YAPEAUasset_memory_block@@PEAUgame_assets@@_K@Z 0000000180017d5c     p5engine.obj
 0002:00000d64       $unwind$?MergeIfPossible@@YAHPEAUgame_assets@@PEAUasset_memory_block@@1@Z 0000000180017d64     p5engine.obj
 0002:00000d6c       $unwind$?AcquireAssetMemory@@YAPEAXPEAUgame_assets@@_K@Z 0000000180017d6c     p5engine.obj
 0002:00000d74       $unwind$?GetBestMatchAssetFrom@@YAIPEAUgame_assets@@W4asset_type_id@@PEAUasset_vector@@2@Z 0000000180017d74     p5engine.obj
 0002:00000d7c       $unwind$?GetRandomAssetFrom@@YAIPEAUgame_assets@@W4asset_type_id@@PEAUrandom_series@@@Z 0000000180017d7c     p5engine.obj
 0002:00000d84       $unwind$?GetFirstAssetFrom@@YAIPEAUgame_assets@@W4asset_type_id@@@Z 0000000180017d84     p5engine.obj
 0002:00000d8c       $unwind$?GetBestMatchBitmapFrom@@YA?AUbitmap_id@@PEAUgame_assets@@W4asset_type_id@@PEAUasset_vector@@2@Z 0000000180017d8c     p5engine.obj
 0002:00000d94       $unwind$?GetFirstBitmapFrom@@YA?AUbitmap_id@@PEAUgame_assets@@W4asset_type_id@@@Z 0000000180017d94     p5engine.obj
 0002:00000d9c       $unwind$?GetRandomBitmapFrom@@YA?AUbitmap_id@@PEAUgame_assets@@W4asset_type_id@@PEAUrandom_series@@@Z 0000000180017d9c     p5engine.obj
 0002:00000da4       $unwind$?GetRandomSoundFrom@@YA?AUsound_id@@PEAUgame_assets@@W4asset_type_id@@PEAUrandom_series@@@Z 0000000180017da4     p5engine.obj
 0002:00000dac       $unwind$?AllocateGameAssets@@YAPEAUgame_assets@@PEAUmemory_arena@@_KPEAUtransient_state@@@Z 0000000180017dac     p5engine.obj
 0002:00000dc0       $unwind$?PlaySound@@YAPEAUplaying_sound@@PEAUaudio_state@@Usound_id@@@Z 0000000180017dc0     p5engine.obj
 0002:00000dc8       $unwind$?ChangeVolume@@YAXPEAUaudio_state@@PEAUplaying_sound@@MTv2@@@Z 0000000180017dc8     p5engine.obj
 0002:00000dd0       $unwind$?OutputPlayingSounds@@YAXPEAUaudio_state@@PEAUgame_sound_output_buffer@@PEAUgame_assets@@PEAUmemory_arena@@@Z 0000000180017dd0     p5engine.obj
 0002:00000de4       $unwind$?InitializeAudioState@@YAXPEAUaudio_state@@PEAUmemory_arena@@@Z 0000000180017de4     p5engine.obj
 0002:00000dec       $unwind$?AddLowEntity@@YA?AUadd_low_entity_result@@PEAUgame_state@@W4entity_type@@Uworld_position@@@Z 0000000180017dec     p5engine.obj
 0002:00000e00       $unwind$?AddGroundedEntity@@YA?AUadd_low_entity_result@@PEAUgame_state@@W4entity_type@@Uworld_position@@PEAUsim_entity_collision_volume_group@@@Z 0000000180017e00     p5engine.obj
 0002:00000e0c       $unwind$?AddStandardRoom@@YA?AUadd_low_entity_result@@PEAUgame_state@@III@Z 0000000180017e0c     p5engine.obj
 0002:00000e18       $unwind$?AddWall@@YA?AUadd_low_entity_result@@PEAUgame_state@@III@Z 0000000180017e18     p5engine.obj
 0002:00000e24       $unwind$?AddStairs@@YA?AUadd_low_entity_result@@PEAUgame_state@@III@Z 0000000180017e24     p5engine.obj
 0002:00000e30       $unwind$?InitHitPoints@@YAXPEAUlow_entity@@I@Z 0000000180017e30     p5engine.obj
 0002:00000e38       $unwind$?AddSword@@YA?AUadd_low_entity_result@@PEAUgame_state@@@Z 0000000180017e38     p5engine.obj
 0002:00000e44       $unwind$?AddPlayer@@YA?AUadd_low_entity_result@@PEAUgame_state@@@Z 0000000180017e44     p5engine.obj
 0002:00000e50       $unwind$?AddMonstar@@YA?AUadd_low_entity_result@@PEAUgame_state@@III@Z 0000000180017e50     p5engine.obj
 0002:00000e5c       $unwind$?AddFamiliar@@YA?AUadd_low_entity_result@@PEAUgame_state@@III@Z 0000000180017e5c     p5engine.obj
 0002:00000e68       $unwind$?DrawHitpoints@@YAXPEAUsim_entity@@PEAUrender_group@@@Z 0000000180017e68     p5engine.obj
 0002:00000e7c       $unwind$?MakeSimpleGroundedCollision@@YAPEAUsim_entity_collision_volume_group@@PEAUgame_state@@MMM@Z 0000000180017e7c     p5engine.obj
 0002:00000e88       $unwind$?MakeNullCollision@@YAPEAUsim_entity_collision_volume_group@@PEAUgame_state@@@Z 0000000180017e88     p5engine.obj
 0002:00000e94       $unwind$?FillGroundChunkWork@@YAXPEAUplatform_work_queue@@PEAX@Z 0000000180017e94     p5engine.obj
 0002:00000e9c       $unwind$?FillGroundChunk@@YAXPEAUtransient_state@@PEAUgame_state@@PEAUground_buffer@@PEAUworld_position@@@Z 0000000180017e9c     p5engine.obj
 0002:00000eb0       $unwind$?ClearBitmap@@YAXPEAUloaded_bitmap@@@Z 0000000180017eb0     p5engine.obj
 0002:00000eb8       $unwind$?MakeEmptyBitmap@@YA?AUloaded_bitmap@@PEAUmemory_arena@@HHH@Z 0000000180017eb8     p5engine.obj
 0002:00000ecc       $unwind$?MakeSphereDiffuseMap@@YAXPEAUloaded_bitmap@@MM@Z 0000000180017ecc     p5engine.obj
 0002:00000ed8       $unwind$?MakeSphereNormalMap@@YAXPEAUloaded_bitmap@@MMM@Z 0000000180017ed8     p5engine.obj
 0002:00000ee4       $unwind$GameUpdateAndRender 0000000180017ee4     p5engine.obj
 0002:00000ef8       $unwind$GameGetSoundSamples 0000000180017ef8     p5engine.obj
 0002:00000f00       $unwind$?IsValid@@YAHUsound_id@@@Z 0000000180017f00     p5engine.obj
 0002:00000f08       $unwind$?GetNextSoundInChain@@YA?AUsound_id@@PEAUgame_assets@@U1@@Z 0000000180017f08     p5engine.obj
 0002:00000f18       $unwind$?GetRenderEntityBasisPos@@YA?AUentity_basis_p_result@@PEAUrender_transform@@Tv3@@@Z 0000000180017f18     p5engine.obj
 0002:00000f2c       $unwind$?PushBitmap@@YAXPEAUrender_group@@PEAUloaded_bitmap@@Tv3@@MTv4@@@Z 0000000180017f2c     p5engine.obj
 0002:00000f38       $unwind$?PushBitmap@@YAXPEAUrender_group@@Ubitmap_id@@Tv3@@MTv4@@@Z 0000000180017f38     p5engine.obj
 0002:00000f44       $unwind$?PushRect@@YAXPEAUrender_group@@Tv3@@Tv2@@Tv4@@@Z 0000000180017f44     p5engine.obj
 0002:00000f50       $unwind$?PushRectOutline@@YAXPEAUrender_group@@Tv3@@Tv2@@Tv4@@@Z 0000000180017f50     p5engine.obj
 0002:00000f5c       $unwind$?Orthographic@@YAXPEAUrender_group@@HHM@Z 0000000180017f5c     p5engine.obj
 0002:00000f5c       $unwind$?Perspective@@YAXPEAUrender_group@@HHMMM@Z 0000000180017f5c     p5engine.obj
 0002:00000f64       $unwind$?RecanonicalizeCoord@@YAXMPEAHPEAM@Z 0000000180017f64     p5engine.obj
 0002:00000f64       $unwind$?Unproject@@YA?ATv2@@PEAUrender_group@@T1@M@Z 0000000180017f64     p5engine.obj
 0002:00000f6c       $unwind$?GetCameraRectangleAtTarget@@YA?AUrectangle2@@PEAUrender_group@@@Z 0000000180017f6c     p5engine.obj
 0002:00000f78       $unwind$?NullPosition@@YA?AUworld_position@@XZ 0000000180017f78     p5engine.obj
 0002:00000f8c       $unwind$?GetWorldChunk@@YAPEAUworld_chunk@@PEAUworld@@HHHPEAUmemory_arena@@@Z 0000000180017f8c     p5engine.obj
 0002:00000f8c       $unwind$__scrt_dllmain_exception_filter 0000000180017f8c     MSVCRTD:utility.obj
 0002:00000f94       $unwind$?MapIntoChunkSpace@@YA?AUworld_position@@PEAUworld@@U1@Tv3@@@Z 0000000180017f94     p5engine.obj
 0002:00000fa8       $unwind$?ChunkPositionFromTilePosition@@YA?AUworld_position@@PEAUworld@@HHHTv3@@@Z 0000000180017fa8     p5engine.obj
 0002:00000fbc       $unwind$?CenteredChunkPoint@@YA?AUworld_position@@III@Z 0000000180017fbc     p5engine.obj
 0002:00000fd0       $unwind$?ChangeEntityLocationRaw@@YAXPEAUmemory_arena@@PEAUworld@@IPEAUworld_position@@2@Z 0000000180017fd0     p5engine.obj
 0002:00000fdc       $unwind$?GetSimSpacePos@@YA?ATv3@@PEAUsim_region@@PEAUlow_entity@@@Z 0000000180017fdc     p5engine.obj
 0002:00000fe8       $unwind$?LoadEntityReference@@YAXPEAUgame_state@@PEAUsim_region@@PEATentity_reference@@@Z 0000000180017fe8     p5engine.obj
 0002:00000ffc       $unwind$?EntityOverlapsRectangle@@YAHTv3@@Usim_entity_collision_volume@@Urectangle3@@@Z 0000000180017ffc     p5engine.obj
 0002:00001008       $unwind$?DefaultMoveSpec@@YA?AUmove_spec@@XZ 0000000180018008     p5engine.obj
 0002:0000101c       $unwind$?DrawRectangleQuickly@@YAXPEAUloaded_bitmap@@Tv2@@11Tv4@@0MUrectangle2i@@H@Z 000000018001801c     p5engine_optimized.obj
 0002:00001044       $chain$9$?DrawRectangleQuickly@@YAXPEAUloaded_bitmap@@Tv2@@11Tv4@@0MUrectangle2i@@H@Z 0000000180018044     p5engine_optimized.obj
 0002:0000107c       $chain$10$?DrawRectangleQuickly@@YAXPEAUloaded_bitmap@@Tv2@@11Tv4@@0MUrectangle2i@@H@Z 000000018001807c     p5engine_optimized.obj
 0002:0000108c       $unwind$__GSHandlerCheckCommon 000000018001808c     MSVCRTD:gshandler.obj
 0002:00001098       $xdatasym                  0000000180018098     MSVCRTD:chkstk.obj
 0002:000010a0       $xdatasym                  00000001800180a0     MSVCRTD:amdsecgs.obj
 0002:000010a4       $unwind$?dllmain_crt_process_attach@@YAHQEAUHINSTANCE__@@QEAX@Z 00000001800180a4     MSVCRTD:dll_dllmain.obj
 0002:000010c4       $unwind$?fin$0@?0??dllmain_crt_process_attach@@YAHQEAUHINSTANCE__@@QEAX@Z@4HA 00000001800180c4     MSVCRTD:dll_dllmain.obj
 0002:000010c4       $unwind$?fin$0@?0??dllmain_crt_process_detach@@YAH_N@Z@4HA 00000001800180c4     MSVCRTD:dll_dllmain.obj
 0002:000010c4       $unwind$?fin$1@?0??dllmain_crt_process_detach@@YAH_N@Z@4HA 00000001800180c4     MSVCRTD:dll_dllmain.obj
 0002:000010c4       $unwind$__scrt_is_nonwritable_in_current_image$filt$0 00000001800180c4     MSVCRTD:utility.obj
 0002:000010cc       $unwind$?dllmain_crt_process_detach@@YAH_N@Z 00000001800180cc     MSVCRTD:dll_dllmain.obj
 0002:000010fc       $unwind$?dllmain_dispatch@@YAHQEAUHINSTANCE__@@KQEAX@Z 00000001800180fc     MSVCRTD:dll_dllmain.obj
 0002:0000111c       $unwind$?filt$0@?0??dllmain_dispatch@@YAHQEAUHINSTANCE__@@KQEAX@Z@4HA 000000018001811c     MSVCRTD:dll_dllmain.obj
 0002:00001124       $unwind$_DllMainCRTStartup 0000000180018124     MSVCRTD:dll_dllmain.obj
 0002:00001124       $unwind$DllMain            0000000180018124     MSVCRTD:dll_dllmain_stub.obj
 0002:0000112c       $unwind$capture_previous_context 000000018001812c     MSVCRTD:gs_report.obj
 0002:00001134       $unwind$__scrt_initialize_default_local_stdio_options 0000000180018134     MSVCRTD:default_local_stdio_options.obj
 0002:00001134       $unwind$__security_init_cookie 0000000180018134     MSVCRTD:gs_support.obj
 0002:0000113c       $unwind$__get_entropy      000000018001813c     MSVCRTD:gs_support.obj
 0002:00001144       $unwind$?__scrt_initialize_type_info@@YAXXZ 0000000180018144     MSVCRTD:tncleanup.obj
 0002:00001144       $unwind$?__scrt_uninitialize_type_info@@YAXXZ 0000000180018144     MSVCRTD:tncleanup.obj
 0002:00001144       $unwind$?configure_argv@__scrt_narrow_argv_policy@@SAHXZ 0000000180018144     MSVCRTD:utility.obj
 0002:00001144       $unwind$?initialize_environment@__scrt_narrow_environment_policy@@SAHXZ 0000000180018144     MSVCRTD:utility.obj
 0002:00001144       $unwind$__scrt_dllmain_after_initialize_c 0000000180018144     MSVCRTD:utility.obj
 0002:00001144       $unwind$__scrt_dllmain_before_initialize_c 0000000180018144     MSVCRTD:utility.obj
 0002:00001144       $unwind$__scrt_dllmain_crt_thread_attach 0000000180018144     MSVCRTD:utility.obj
 0002:00001144       $unwind$__scrt_dllmain_crt_thread_detach 0000000180018144     MSVCRTD:utility.obj
 0002:00001144       $unwind$__scrt_dllmain_uninitialize_c 0000000180018144     MSVCRTD:utility.obj
 0002:00001144       $unwind$__scrt_dllmain_uninitialize_critical 0000000180018144     MSVCRTD:utility.obj
 0002:0000114c       $unwind$__scrt_is_nonwritable_in_current_image 000000018001814c     MSVCRTD:utility.obj
 0002:0000116c       $unwind$__scrt_acquire_startup_lock 000000018001816c     MSVCRTD:utility.obj
 0002:00001174       $unwind$__scrt_initialize_crt 0000000180018174     MSVCRTD:utility.obj
 0002:00001174       $unwind$__scrt_release_startup_lock 0000000180018174     MSVCRTD:utility.obj
 0002:0000117c       $unwind$__scrt_uninitialize_crt 000000018001817c     MSVCRTD:utility.obj
 0002:00001184       $unwind$__scrt_initialize_onexit_tables 0000000180018184     MSVCRTD:utility.obj
 0002:00001190       $unwind$__scrt_fastfail    0000000180018190     MSVCRTD:utility_desktop.obj
 0002:0000119c       $unwind$_RTC_Initialize    000000018001819c     MSVCRTD:initsect.obj
 0002:0000119c       $unwind$_RTC_Terminate     000000018001819c     MSVCRTD:initsect.obj
 0002:000011a8       $unwind$__isa_available_init 00000001800181a8     MSVCRTD:cpu_disp.obj
 0002:000011b8       $unwind$__scrt_is_ucrt_dll_in_use 00000001800181b8     MSVCRTD:ucrt_detection.obj
 0002:000011c0       $xdatasym                  00000001800181c0     MSVCRTD:guard_dispatch.obj
 0002:000011c8       $xdatasym                  00000001800181c8     MSVCRTD:guard_xfg_dispatch.obj
 0002:000011d0       .edata                     00000001800181d0     P5Engine.exp
 0002:000011f8       rgpv                       00000001800181f8     P5Engine.exp
 0002:00001200       rgszName                   0000000180018200     P5Engine.exp
 0002:00001208       rgwOrd                     0000000180018208     P5Engine.exp
 0002:0000120c       szName                     000000018001820c     P5Engine.exp
 0002:00001219       $N00001                    0000000180018219     P5Engine.exp
 0002:0000122d       $N00002                    000000018001822d     P5Engine.exp
 0002:000013d0       .idata$6                   00000001800183d0     vcruntimed:VCRUNTIME140D.dll
 0002:000014aa       .idata$6                   00000001800184aa     ucrtd:ucrtbased.dll
 0002:0000161e       .idata$6                   000000018001861e     kernel32:KERNEL32.dll
 0003:00000000       ?RandomNumberTable@@3PAIA  0000000180019000     p5engine.obj
 0003:00004050       ?Platform@@3Uplatform_api@@A 000000018001d050     p5engine.obj
 0003:000040b0       ?__proc_attached@@3HA      000000018001d0b0     MSVCRTD:dll_dllmain.obj
 0003:000040c0       GS_ExceptionRecord         000000018001d0c0     MSVCRTD:gs_report.obj
 0003:00004160       GS_ContextRecord           000000018001d160     MSVCRTD:gs_report.obj
 0003:00004660       ?is_initialized_as_dll@@3_NA 000000018001d660     MSVCRTD:utility.obj
 0003:00004661       ?module_local_atexit_table_initialized@@3_NA 000000018001d661     MSVCRTD:utility.obj
 0003:00004668       ?module_local_atexit_table@@3U_onexit_table_t@@A 000000018001d668     MSVCRTD:utility.obj
 0003:00004680       ?module_local_at_quick_exit_table@@3U_onexit_table_t@@A 000000018001d680     MSVCRTD:utility.obj
 0005:00000000       __20BB4341_malloc@h        000000018001f000     p5engine.obj
 0005:00000001       __A435B42B_p5engine_types@h 000000018001f001     p5engine.obj
 0005:00000002       __7D4BEAAE_p5engine_platform@h 000000018001f002     p5engine.obj
 0005:00000003       __741AE07E_corecrt_math@h  000000018001f003     p5engine.obj
 0005:00000004       __7BF3FA8A_p5engine_intrinsics@h 000000018001f004     p5engine.obj
 0005:00000005       __87290AA6_p5engine_math@h 000000018001f005     p5engine.obj
 0005:00000006       __B7A387D6_p5engine_random@h 000000018001f006     p5engine.obj
 0005:00000007       __F17FF173_p5engine_entity@h 000000018001f007     p5engine.obj
 0005:00000008       __72A74871_p5engine_asset@h 000000018001f008     p5engine.obj
 0005:00000009       __BD87FD4A_p5engine@h      000000018001f009     p5engine.obj
 0005:0000000a       __6F2BF339_p5engine_render_group@cpp 000000018001f00a     p5engine.obj
 0005:0000000b       __281AC6F8_p5engine_world@cpp 000000018001f00b     p5engine.obj
 0005:0000000c       __B07C4A52_p5engine_sim_region@cpp 000000018001f00c     p5engine.obj
 0005:0000000d       __BDC7FEEB_p5engine_entity@cpp 000000018001f00d     p5engine.obj
 0005:0000000e       __3D4C1499_p5engine_asset@cpp 000000018001f00e     p5engine.obj
 0005:0000000f       __39A8D9B6_p5engine_audio@cpp 000000018001f00f     p5engine.obj
 0005:00000010       __BAF57382_p5engine@cpp    000000018001f010     p5engine.obj
 0005:00000011       __20BB4341_malloc@h        000000018001f011     p5engine_optimized.obj
 0005:00000012       __A435B42B_p5engine_types@h 000000018001f012     p5engine_optimized.obj
 0005:00000013       __7D4BEAAE_p5engine_platform@h 000000018001f013     p5engine_optimized.obj
 0005:00000014       __741AE07E_corecrt_math@h  000000018001f014     p5engine_optimized.obj
 0005:00000015       __7BF3FA8A_p5engine_intrinsics@h 000000018001f015     p5engine_optimized.obj
 0005:00000016       __87290AA6_p5engine_math@h 000000018001f016     p5engine_optimized.obj
 0005:00000017       __B7A387D6_p5engine_random@h 000000018001f017     p5engine_optimized.obj
 0005:00000018       __F17FF173_p5engine_entity@h 000000018001f018     p5engine_optimized.obj
 0005:00000019       __72A74871_p5engine_asset@h 000000018001f019     p5engine_optimized.obj
 0005:0000001a       __BD87FD4A_p5engine@h      000000018001f01a     p5engine_optimized.obj
 0005:0000001b       __03FC23C0_p5engine_optimized@cpp 000000018001f01b     p5engine_optimized.obj
 0006:00000060       $R000000                   0000000180020060     * linker generated manifest res *
